
DE1_SoC_Audio.elf:     file format elf32-littlenios2
DE1_SoC_Audio.elf
architecture: nios2, flags 0x00000112:
EXEC_P, HAS_SYMS, D_PAGED
start address 0x050801b8

Program Header:
    LOAD off    0x00001000 vaddr 0x05080000 paddr 0x05080000 align 2**12
         filesz 0x00000020 memsz 0x00000020 flags r-x
    LOAD off    0x00001020 vaddr 0x05080020 paddr 0x05080020 align 2**12
         filesz 0x0000f3e0 memsz 0x0000f3e0 flags r-x
    LOAD off    0x00010400 vaddr 0x0508f400 paddr 0x05090e68 align 2**12
         filesz 0x00001a68 memsz 0x00001a68 flags rw-
    LOAD off    0x000128d0 vaddr 0x050928d0 paddr 0x050928d0 align 2**12
         filesz 0x00000000 memsz 0x00000320 flags rw-

Sections:
Idx Name          Size      VMA       LMA       File off  Algn
  0 .entry        00000020  05080000  05080000  00001000  2**5
                  CONTENTS, ALLOC, LOAD, READONLY, CODE
  1 .exceptions   00000198  05080020  05080020  00001020  2**2
                  CONTENTS, ALLOC, LOAD, READONLY, CODE
  2 .text         0000e490  050801b8  050801b8  000011b8  2**2
                  CONTENTS, ALLOC, LOAD, READONLY, CODE
  3 .rodata       00000db8  0508e648  0508e648  0000f648  2**2
                  CONTENTS, ALLOC, LOAD, READONLY, DATA
  4 .rwdata       00001a68  0508f400  05090e68  00010400  2**2
                  CONTENTS, ALLOC, LOAD, DATA, SMALL_DATA
  5 .bss          00000320  050928d0  050928d0  000128d0  2**2
                  ALLOC, SMALL_DATA
  6 .comment      00000023  00000000  00000000  00011e68  2**0
                  CONTENTS, READONLY
  7 .debug_aranges 00000e80  00000000  00000000  00011e90  2**3
                  CONTENTS, READONLY, DEBUGGING
  8 .debug_info   00025952  00000000  00000000  00012d10  2**0
                  CONTENTS, READONLY, DEBUGGING
  9 .debug_abbrev 00009b5a  00000000  00000000  00038662  2**0
                  CONTENTS, READONLY, DEBUGGING
 10 .debug_line   0000b0f2  00000000  00000000  000421bc  2**0
                  CONTENTS, READONLY, DEBUGGING
 11 .debug_frame  00001ea8  00000000  00000000  0004d2b0  2**2
                  CONTENTS, READONLY, DEBUGGING
 12 .debug_str    000034b1  00000000  00000000  0004f158  2**0
                  CONTENTS, READONLY, DEBUGGING
 13 .debug_loc    000111df  00000000  00000000  00052609  2**0
                  CONTENTS, READONLY, DEBUGGING
 14 .debug_alt_sim_info 00000060  00000000  00000000  000637e8  2**2
                  CONTENTS, READONLY, DEBUGGING
 15 .debug_ranges 00000a88  00000000  00000000  00063848  2**3
                  CONTENTS, READONLY, DEBUGGING
 16 .thread_model 00000003  00000000  00000000  00067ae2  2**0
                  CONTENTS, READONLY
 17 .cpu          00000003  00000000  00000000  00067ae5  2**0
                  CONTENTS, READONLY
 18 .qsys         00000001  00000000  00000000  00067ae8  2**0
                  CONTENTS, READONLY
 19 .simulation_enabled 00000001  00000000  00000000  00067ae9  2**0
                  CONTENTS, READONLY
 20 .sysid_hash   00000004  00000000  00000000  00067aea  2**0
                  CONTENTS, READONLY
 21 .sysid_base   00000004  00000000  00000000  00067aee  2**0
                  CONTENTS, READONLY
 22 .sysid_time   00000004  00000000  00000000  00067af2  2**0
                  CONTENTS, READONLY
 23 .stderr_dev   00000009  00000000  00000000  00067af6  2**0
                  CONTENTS, READONLY
 24 .stdin_dev    00000009  00000000  00000000  00067aff  2**0
                  CONTENTS, READONLY
 25 .stdout_dev   00000009  00000000  00000000  00067b08  2**0
                  CONTENTS, READONLY
 26 .sopc_system_name 0000000a  00000000  00000000  00067b11  2**0
                  CONTENTS, READONLY
 27 .quartus_project_dir 0000003e  00000000  00000000  00067b1b  2**0
                  CONTENTS, READONLY
 28 .jdi          00004813  00000000  00000000  00067b59  2**0
                  CONTENTS, READONLY
 29 .sopcinfo     0009a81f  00000000  00000000  0006c36c  2**0
                  CONTENTS, READONLY
SYMBOL TABLE:
05080000 l    d  .entry	00000000 .entry
05080020 l    d  .exceptions	00000000 .exceptions
050801b8 l    d  .text	00000000 .text
0508e648 l    d  .rodata	00000000 .rodata
0508f400 l    d  .rwdata	00000000 .rwdata
050928d0 l    d  .bss	00000000 .bss
00000000 l    d  .comment	00000000 .comment
00000000 l    d  .debug_aranges	00000000 .debug_aranges
00000000 l    d  .debug_info	00000000 .debug_info
00000000 l    d  .debug_abbrev	00000000 .debug_abbrev
00000000 l    d  .debug_line	00000000 .debug_line
00000000 l    d  .debug_frame	00000000 .debug_frame
00000000 l    d  .debug_str	00000000 .debug_str
00000000 l    d  .debug_loc	00000000 .debug_loc
00000000 l    d  .debug_alt_sim_info	00000000 .debug_alt_sim_info
00000000 l    d  .debug_ranges	00000000 .debug_ranges
00000000 l    df *ABS*	00000000 ../DE1_SoC_Audio_bsp//obj/HAL/src/crt0.o
05080200 l       .text	00000000 alt_after_alt_main
00000000 l    df *ABS*	00000000 alt_exception_entry.o
05080094 l       .exceptions	00000000 alt_exception_unknown
00000000 l    df *ABS*	00000000 alt_irq_handler.c
00000000 l    df *ABS*	00000000 AUDIO.c
05092910 l     O .bss	00000028 reg_file
00000000 l    df *ABS*	00000000 I2C.c
00000000 l    df *ABS*	00000000 LED.c
00000000 l    df *ABS*	00000000 SEG7.c
0508f400 l     O .rwdata	00000010 szMap
00000000 l    df *ABS*	00000000 debug.c
00000000 l    df *ABS*	00000000 main.c
050928d0 l     O .bss	00000004 sum.3876
050928d4 l     O .bss	00000002 cnt.3877
00000000 l    df *ABS*	00000000 lib2-divmod.c
050826a8 l     F .text	00000074 udivmodsi4
00000000 l    df *ABS*	00000000 printf.c
00000000 l    df *ABS*	00000000 puts.c
00000000 l    df *ABS*	00000000 sprintf.c
00000000 l    df *ABS*	00000000 strlen.c
00000000 l    df *ABS*	00000000 vfprintf.c
05082a28 l     F .text	00000034 __sprint_r
0508f126 l     O .rodata	00000010 blanks.3515
0508f136 l     O .rodata	00000010 zeroes.3516
00000000 l    df *ABS*	00000000 vsnprintf.c
00000000 l    df *ABS*	00000000 wsetup.c
00000000 l    df *ABS*	00000000 dtoa.c
05084ad8 l     F .text	00000208 quorem
00000000 l    df *ABS*	00000000 fflush.c
00000000 l    df *ABS*	00000000 findfp.c
05086514 l     F .text	00000008 __fp_lock
0508651c l     F .text	00000008 __fp_unlock
00000000 l    df *ABS*	00000000 mallocr.c
00000000 l    df *ABS*	00000000 fvwrite.c
00000000 l    df *ABS*	00000000 fwalk.c
00000000 l    df *ABS*	00000000 impure.c
0508f410 l     O .rwdata	00000400 impure_data
00000000 l    df *ABS*	00000000 locale.c
0508f16c l     O .rodata	00000030 lconv
00000000 l    df *ABS*	00000000 makebuf.c
00000000 l    df *ABS*	00000000 mallocr.c
00000000 l    df *ABS*	00000000 memchr.c
00000000 l    df *ABS*	00000000 memcpy.c
00000000 l    df *ABS*	00000000 memmove.c
00000000 l    df *ABS*	00000000 memset.c
00000000 l    df *ABS*	00000000 mprec.c
0508f2b4 l     O .rodata	0000000c p05.2435
00000000 l    df *ABS*	00000000 mallocr.c
00000000 l    df *ABS*	00000000 s_isinfd.c
00000000 l    df *ABS*	00000000 s_isnand.c
00000000 l    df *ABS*	00000000 sbrkr.c
00000000 l    df *ABS*	00000000 stdio.c
00000000 l    df *ABS*	00000000 strcmp.c
00000000 l    df *ABS*	00000000 writer.c
00000000 l    df *ABS*	00000000 mallocr.c
00000000 l    df *ABS*	00000000 closer.c
00000000 l    df *ABS*	00000000 fclose.c
00000000 l    df *ABS*	00000000 fstatr.c
00000000 l    df *ABS*	00000000 int_errno.c
00000000 l    df *ABS*	00000000 isattyr.c
00000000 l    df *ABS*	00000000 lseekr.c
00000000 l    df *ABS*	00000000 readr.c
00000000 l    df *ABS*	00000000 libgcc2.c
00000000 l    df *ABS*	00000000 libgcc2.c
00000000 l    df *ABS*	00000000 fp-bit.c
0508a85c l     F .text	00000354 _fpadd_parts
00000000 l    df *ABS*	00000000 fp-bit.c
00000000 l    df *ABS*	00000000 fp-bit.c
00000000 l    df *ABS*	00000000 fp-bit.c
00000000 l    df *ABS*	00000000 fp-bit.c
00000000 l    df *ABS*	00000000 fp-bit.c
00000000 l    df *ABS*	00000000 fp-bit.c
00000000 l    df *ABS*	00000000 fp-bit.c
00000000 l    df *ABS*	00000000 fp-bit.c
00000000 l    df *ABS*	00000000 fp-bit.c
00000000 l    df *ABS*	00000000 fp-bit.c
00000000 l    df *ABS*	00000000 fp-bit.c
00000000 l    df *ABS*	00000000 libgcc2.c
00000000 l    df *ABS*	00000000 libgcc2.c
00000000 l    df *ABS*	00000000 libgcc2.c
00000000 l    df *ABS*	00000000 fp-bit.c
00000000 l    df *ABS*	00000000 fp-bit.c
00000000 l    df *ABS*	00000000 fp-bit.c
00000000 l    df *ABS*	00000000 libgcc2.c
00000000 l    df *ABS*	00000000 libgcc2.c
00000000 l    df *ABS*	00000000 alt_close.c
0508bb28 l     F .text	00000050 alt_get_errno
00000000 l    df *ABS*	00000000 alt_dev.c
0508bc40 l     F .text	0000002c alt_dev_null_write
00000000 l    df *ABS*	00000000 alt_errno.c
00000000 l    df *ABS*	00000000 alt_fstat.c
0508bc6c l     F .text	00000050 alt_get_errno
00000000 l    df *ABS*	00000000 alt_irq_register.c
00000000 l    df *ABS*	00000000 alt_irq_vars.c
00000000 l    df *ABS*	00000000 alt_isatty.c
0508bf18 l     F .text	00000050 alt_get_errno
00000000 l    df *ABS*	00000000 alt_load.c
0508c008 l     F .text	0000006c alt_load_section
00000000 l    df *ABS*	00000000 alt_lseek.c
0508c0f4 l     F .text	00000050 alt_get_errno
00000000 l    df *ABS*	00000000 alt_main.c
00000000 l    df *ABS*	00000000 alt_malloc_lock.c
00000000 l    df *ABS*	00000000 alt_read.c
0508c2cc l     F .text	00000050 alt_get_errno
00000000 l    df *ABS*	00000000 alt_release_fd.c
00000000 l    df *ABS*	00000000 alt_sbrk.c
05090e5c l     O .rwdata	00000004 heap_end
00000000 l    df *ABS*	00000000 alt_usleep.c
00000000 l    df *ABS*	00000000 alt_write.c
0508c54c l     F .text	00000050 alt_get_errno
00000000 l    df *ABS*	00000000 alt_sys_init.c
0508c688 l     F .text	00000038 alt_dev_reg
0508fdcc l     O .rwdata	00001060 jtag_uart
00000000 l    df *ABS*	00000000 altera_avalon_jtag_uart_fd.c
00000000 l    df *ABS*	00000000 altera_avalon_jtag_uart_init.c
0508c978 l     F .text	00000204 altera_avalon_jtag_uart_irq
0508cb7c l     F .text	000000a4 altera_avalon_jtag_uart_timeout
00000000 l    df *ABS*	00000000 altera_avalon_jtag_uart_ioctl.c
00000000 l    df *ABS*	00000000 altera_avalon_jtag_uart_read.c
00000000 l    df *ABS*	00000000 altera_avalon_jtag_uart_write.c
00000000 l    df *ABS*	00000000 altera_avalon_timer_sc.c
0508d1b8 l     F .text	00000074 alt_avalon_timer_sc_irq
00000000 l    df *ABS*	00000000 alt_alarm_start.c
00000000 l    df *ABS*	00000000 alt_busy_sleep.c
00000000 l    df *ABS*	00000000 alt_dcache_flush_all.c
00000000 l    df *ABS*	00000000 alt_dev_llist_insert.c
0508d58c l     F .text	00000050 alt_get_errno
00000000 l    df *ABS*	00000000 alt_do_ctors.c
00000000 l    df *ABS*	00000000 alt_do_dtors.c
00000000 l    df *ABS*	00000000 alt_icache_flush_all.c
00000000 l    df *ABS*	00000000 alt_iic.c
00000000 l    df *ABS*	00000000 alt_iic_isr_register.c
00000000 l    df *ABS*	00000000 alt_io_redirect.c
0508da2c l     F .text	000000c0 alt_open_fd
00000000 l    df *ABS*	00000000 alt_open.c
0508db64 l     F .text	00000050 alt_get_errno
0508dbb4 l     F .text	000000cc alt_file_locked
00000000 l    df *ABS*	00000000 alt_tick.c
00000000 l    df *ABS*	00000000 altera_nios2_qsys_irq.c
00000000 l    df *ABS*	00000000 alt_find_dev.c
00000000 l    df *ABS*	00000000 alt_find_file.c
00000000 l    df *ABS*	00000000 alt_get_fd.c
00000000 l    df *ABS*	00000000 alt_icache_flush.c
00000000 l    df *ABS*	00000000 atexit.c
00000000 l    df *ABS*	00000000 exit.c
00000000 l    df *ABS*	00000000 memcmp.c
00000000 l    df *ABS*	00000000 __atexit.c
00000000 l    df *ABS*	00000000 __call_atexit.c
00000000 l    df *ABS*	00000000 alt_exit.c
00000000 l    df *ABS*	00000000 
05081f90 g     F .text	00000050 display_time_elapsed
05088e6c g     F .text	00000074 _mprec_log10
05081030 g     F .text	00000124 I2C_Read
05088f5c g     F .text	00000084 __any_on
05089bcc g     F .text	00000064 _isatty_r
0508f19c g     O .rodata	00000028 __mprec_tinytens
0508c214 g     F .text	00000078 alt_main
0508bae4 g     F .text	00000044 __ashldi3
05082840 g     F .text	00000084 _puts_r
05081d24 g     F .text	00000060 button_monitor_isr
05092960 g     O .bss	00000100 alt_irq
05089c30 g     F .text	0000006c _lseek_r
05090e68 g       *ABS*	00000000 __flash_rwdata_start
0508b0fc g     F .text	0000005c __eqdf2
05081bc8 g     F .text	0000003c ui_is_mic_record
05092bf0 g       *ABS*	00000000 __alt_heap_start
05080204 g     F .text	00000188 AUDIO_Init
05082804 g     F .text	0000003c printf
0508044c g     F .text	00000078 AUDIO_AdcEnableHighPassFilter
05089780 g     F .text	0000005c __sseek
050865a4 g     F .text	0000010c __sinit
0508723c g     F .text	0000009c _setlocale_r
05086530 g     F .text	00000064 __sfmoreglue
0508c2ac g     F .text	00000020 __malloc_unlock
05087e34 g     F .text	00000128 memmove
05086594 g     F .text	00000010 _cleanup
05080cfc g     F .text	000000f4 aduio_RegWrite
05080f08 g     F .text	0000002c AUDIO_FifoClear
05088038 g     F .text	000000a8 _Balloc
050816a4 g     F .text	0000002c LED_AllOff
0508b1b4 g     F .text	00000064 __gtdf2
00000000  w      *UND*	00000000 __errno
05080eb4 g     F .text	00000054 AUDIO_AdcFifoGetData
050813c4 g     F .text	0000012c i2c_write
05080000 g     F .entry	0000001c __reset
05081fe0 g     F .text	00000094 show_power
05080020 g       *ABS*	00000000 __flash_exceptions_start
05089b64 g     F .text	00000068 _fstat_r
050928f4 g     O .bss	00000004 errno
05092900 g     O .bss	00000004 alt_argv
05098e2c g       *ABS*	00000000 _gp
0508c51c g     F .text	00000030 usleep
050821dc g     F .text	00000060 show_menu
0508fc4c g     O .rwdata	00000180 alt_fd_list
0508df90 g     F .text	00000090 alt_find_dev
05087d3c g     F .text	000000f8 memcpy
05081640 g     F .text	00000038 LED_Display
05086524 g     F .text	0000000c _cleanup_r
0508b2d8 g     F .text	000000d4 __floatsidf
05081d84 g     F .text	00000084 button_monitor_start
0508daec g     F .text	00000078 alt_io_redirect
0508b27c g     F .text	0000005c __ltdf2
0508e648 g       *ABS*	00000000 __DTOR_END__
050828c4 g     F .text	00000014 puts
05088dc8 g     F .text	000000a4 __ratio
05081e08 g     F .text	00000188 init_audio
0508cd7c g     F .text	00000218 altera_avalon_jtag_uart_read
00000000  w      *UND*	00000000 malloc
050827d8 g     F .text	0000002c _printf_r
050827c8 g     F .text	00000008 __udivsi3
0508bf68 g     F .text	000000a0 isatty
05080be4 g     F .text	0000008c AUDIO_EnableByPass
0508f1ec g     O .rodata	000000c8 __mprec_tens
050872d8 g     F .text	0000000c __locale_charset
05084924 g     F .text	00000040 vsnprintf
0508e1e8 g     F .text	0000008c alt_icache_flush
05081154 g     F .text	0000017c I2C_MultipleRead
050928f0 g     O .bss	00000004 __malloc_top_pad
050809c4 g     F .text	00000110 AUDIO_SetLineInVol
05090e34 g     O .rwdata	00000004 __mb_cur_max
050872e4 g     F .text	0000000c _localeconv_r
05088438 g     F .text	0000003c __i2b
05086bf8 g     F .text	000004e4 __sfvwrite_r
05081740 g     F .text	0000005c SEG7_Clear
05089640 g     F .text	00000064 _sbrk_r
05081b3c g     F .text	0000008c myprintf_dword_array
05089c9c g     F .text	0000006c _read_r
0508f810 g     O .rwdata	0000000c __lc_ctype
05090e50 g     O .rwdata	00000004 alt_max_fd
0508b8cc g     F .text	00000104 __unpack_d
05089a14 g     F .text	0000013c _fclose_r
050864e4 g     F .text	00000030 fflush
05080574 g     F .text	000000e0 AUDIO_DacEnableZeroCross
050928ec g     O .bss	00000004 __malloc_max_sbrked_mem
0508bd68 g     F .text	000001b0 alt_irq_register
0508abb0 g     F .text	00000054 __adddf3
05088b3c g     F .text	00000148 __b2d
0508a2d0 g     F .text	0000058c __umoddi3
0508c144 g     F .text	000000d0 lseek
05090e2c g     O .rwdata	00000004 _global_impure_ptr
05088fe0 g     F .text	000005fc _realloc_r
05092bf0 g       *ABS*	00000000 __bss_end
0508d93c g     F .text	000000f0 alt_iic_isr_register
0508de6c g     F .text	00000104 alt_tick
05089d08 g     F .text	000005c8 __udivdi3
0508f1c4 g     O .rodata	00000028 __mprec_bigtens
0508821c g     F .text	00000104 __s2b
0508b480 g     F .text	0000011c __floatunsidf
050803d4 g     F .text	00000078 AUDIO_MicBoost
050888dc g     F .text	00000058 __mcmp
050867bc g     F .text	00000018 __fp_lock_all
0508d8f0 g     F .text	0000004c alt_ic_irq_enabled
05080f34 g     F .text	000000fc I2C_Write
050817f8 g     F .text	00000070 SEG7_Number
0508ddd4 g     F .text	00000098 alt_alarm_stop
050928f8 g     O .bss	00000004 alt_irq_active
050800ec g     F .exceptions	000000cc alt_irq_handler
0508fc24 g     O .rwdata	00000028 alt_dev_null
050812d0 g     F .text	00000084 i2c_start
0508d548 g     F .text	00000044 alt_dcache_flush_all
05088320 g     F .text	00000068 __hi0bits
0508b3ac g     F .text	000000d4 __fixdfsi
05090e68 g       *ABS*	00000000 __ram_rwdata_end
05090e48 g     O .rwdata	00000008 alt_dev_list
0508c59c g     F .text	000000ec write
0508f400 g       *ABS*	00000000 __ram_rodata_end
0508bcbc g     F .text	000000ac fstat
0508baa0 g     F .text	00000044 __lshrdi3
05081a48 g     F .text	0000006c myprintf
05088654 g     F .text	0000012c __pow5mult
050928e4 g     O .bss	00000004 __nlocale_changed
050827d0 g     F .text	00000008 __umodsi3
05080c70 g     F .text	0000008c AUDIO_EnableSiteTone
05092bf0 g       *ABS*	00000000 end
05081678 g     F .text	0000002c LED_AllOn
0508c8b8 g     F .text	000000c0 altera_avalon_jtag_uart_init
0508e648 g       *ABS*	00000000 __CTOR_LIST__
050ce200 g       *ABS*	00000000 __alt_stack_pointer
0508d22c g     F .text	00000088 alt_avalon_timer_sc_init
0508b5fc g     F .text	000000ac __clzsi2
0508cf94 g     F .text	00000224 altera_avalon_jtag_uart_write
050867ac g     F .text	00000004 __sfp_lock_acquire
05087c44 g     F .text	000000f8 memchr
05082a5c g     F .text	00001df8 ___vfprintf_internal_r
050828d8 g     F .text	00000058 _sprintf_r
05086928 g     F .text	000002d0 _free_r
0508e46c g     F .text	000001a0 __call_exitprocs
050928e0 g     O .bss	00000004 __mlocale_changed
05090e38 g     O .rwdata	00000004 __malloc_sbrk_base
050801b8 g     F .text	0000004c _start
05092908 g     O .bss	00000004 _alt_tick_rate
05088780 g     F .text	0000015c __lshift
0509290c g     O .bss	00000004 _alt_nticks
0508c31c g     F .text	000000f0 read
0508c6f4 g     F .text	00000060 alt_sys_init
0508e33c g     F .text	00000130 __register_exitproc
05080654 g     F .text	0000008c AUDIO_DacEnableSoftMute
05088474 g     F .text	000001e0 __multiply
0508cc20 g     F .text	00000068 altera_avalon_jtag_uart_close
0508f400 g       *ABS*	00000000 __ram_rwdata_start
0508e648 g       *ABS*	00000000 __ram_rodata_start
05092938 g     O .bss	00000028 __malloc_current_mallinfo
05088c84 g     F .text	00000144 __d2b
05081c40 g     F .text	0000003c ui_is_dac_zero_cross
0508c754 g     F .text	00000060 altera_avalon_jtag_uart_read_fd
0508e134 g     F .text	000000b4 alt_get_fd
0508d3f4 g     F .text	00000154 alt_busy_sleep
0508b9d0 g     F .text	000000d0 __fpcmp_parts_d
050899b0 g     F .text	00000064 _close_r
0508e2c0 g     F .text	0000007c memcmp
0508c814 g     F .text	00000050 altera_avalon_jtag_uart_close_fd
05092bf0 g       *ABS*	00000000 __alt_stack_base
0508c864 g     F .text	00000054 altera_avalon_jtag_uart_ioctl_fd
05084964 g     F .text	00000174 __swsetup_r
05082074 g     F .text	00000058 init
0508af48 g     F .text	000001b4 __divdf3
050866b0 g     F .text	000000fc __sfp
05088ee0 g     F .text	0000007c __copybits
050804c4 g     F .text	000000b0 AUDIO_DacDeemphasisControl
0508f81c g     O .rwdata	00000408 __malloc_av_
050867b8 g     F .text	00000004 __sinit_lock_release
05084878 g     F .text	000000ac _vsnprintf_r
05081354 g     F .text	00000070 i2c_stop
0508ac64 g     F .text	000002e4 __muldf3
050896a4 g     F .text	00000054 __sread
0508179c g     F .text	0000005c SEG7_Full
0508e020 g     F .text	00000114 alt_find_file
05081934 g     F .text	000000e4 SEG7_Decimal
0508d5dc g     F .text	000000a0 alt_dev_llist_insert
0508c28c g     F .text	00000020 __malloc_lock
0508c46c g     F .text	000000b0 sbrk
0508084c g     F .text	00000090 AUDIO_SetInputSource
050862fc g     F .text	000001e8 _fflush_r
050898f4 g     F .text	000000bc _calloc_r
0508038c g     F .text	00000048 AUDIO_InterfaceActive
050928d0 g       *ABS*	00000000 __bss_start
05087f5c g     F .text	000000dc memset
0508223c g     F .text	0000046c main
05092904 g     O .bss	00000004 alt_envp
050928e8 g     O .bss	00000004 __malloc_max_total_mem
0508c7b4 g     F .text	00000060 altera_avalon_jtag_uart_write_fd
050814f0 g     F .text	00000150 i2c_read
050928d8 g     O .bss	00000004 record_sample_rate
050897dc g     F .text	00000008 __sclose
050ce200 g       *ABS*	00000000 __alt_heap_limit
05089b50 g     F .text	00000014 fclose
05092a60 g     O .bss	00000190 _atexit0
05084ce0 g     F .text	0000161c _dtoa_r
050874c0 g     F .text	00000784 _malloc_r
05090e54 g     O .rwdata	00000004 alt_errno
050870dc g     F .text	000000a8 _fwalk
05081c7c g     F .text	000000a8 ui_get_sample_rate
0508271c g     F .text	00000050 __divsi3
0508f2c0 g     O .rodata	00000014 __thenan_df
050867ec g     F .text	0000013c _malloc_trim_r
0508e648 g       *ABS*	00000000 __CTOR_END__
0508076c g     F .text	000000e0 AUDIO_LineInMute
050897e4 g     F .text	000000a4 strcmp
050806e0 g     F .text	0000008c AUDIO_MicMute
0508e648 g       *ABS*	00000000 __flash_rodata_start
0508e648 g       *ABS*	00000000 __DTOR_LIST__
0508b158 g     F .text	0000005c __nedf2
0508c6c0 g     F .text	00000034 alt_irq_init
0508c40c g     F .text	00000060 alt_release_fd
05082930 g     F .text	0000006c sprintf
0508f2d4 g     O .rodata	00000100 __clz_tab
05081868 g     F .text	000000cc SEG7_Hex
05081a18 g     F .text	00000030 debug_output
050928dc g     O .bss	00000004 _PathLocale
0508e274 g     F .text	00000014 atexit
050820cc g     F .text	00000110 dump_record_data
05089888 g     F .text	0000006c _write_r
050872f0 g     F .text	0000001c setlocale
05090e30 g     O .rwdata	00000004 _impure_ptr
050928fc g     O .bss	00000004 alt_argc
0508d6d8 g     F .text	0000005c _do_dtors
05080e78 g     F .text	0000003c AUDIO_AdcFifoNotEmpty
05080020 g       .exceptions	00000000 alt_irq_entry
05088adc g     F .text	00000060 __ulp
050895dc g     F .text	00000038 __isinfd
050867d4 g     F .text	00000018 __fp_unlock_all
05081c04 g     F .text	0000003c ui_is_mic_boost
05080e2c g     F .text	0000004c AUDIO_DacFifoSetData
05090e40 g     O .rwdata	00000008 alt_fs_list
05081ab4 g     F .text	00000088 myprintf_hex_array
05080020 g       *ABS*	00000000 __ram_exceptions_start
050808dc g     F .text	000000e8 AUDIO_SetSampleRate
0508730c g     F .text	0000000c localeconv
05080000 g       *ABS*	00000000 __alt_mem_onchip_memory2
0508d764 g     F .text	00000050 alt_ic_isr_register
05090e68 g       *ABS*	00000000 _edata
05092bf0 g       *ABS*	00000000 _end
05080ad4 g     F .text	00000110 AUDIO_SetLineOutVol
050801b8 g       *ABS*	00000000 __ram_exceptions_end
0508cc88 g     F .text	000000f4 altera_avalon_jtag_uart_ioctl
0508d850 g     F .text	000000a0 alt_ic_irq_disable
050896f8 g     F .text	00000088 __swrite
05090e3c g     O .rwdata	00000004 __malloc_trim_threshold
0508df70 g     F .text	00000020 altera_nios2_qsys_irq_init
0508e288 g     F .text	00000038 exit
050816d0 g     F .text	00000070 LED_LightCount
05087184 g     F .text	000000b8 _fwalk_reent
05088934 g     F .text	000001a8 __mdiff
0508276c g     F .text	0000005c __modsi3
050ce200 g       *ABS*	00000000 __alt_data_end
05080020 g     F .exceptions	00000000 alt_exception
050867b0 g     F .text	00000004 __sfp_lock_release
00000000 g       *ABS*	00000000 __alt_mem_sdram
0508e60c g     F .text	0000003c _exit
05089614 g     F .text	0000002c __isnand
0508d2b4 g     F .text	00000140 alt_alarm_start
0508b59c g     F .text	00000060 __muldi3
05087318 g     F .text	000001a8 __smakebuf_r
0508299c g     F .text	0000008c strlen
0508dc80 g     F .text	00000154 open
05080df0 g     F .text	0000003c AUDIO_DacFifoNotFull
0508b218 g     F .text	00000064 __gedf2
0508d734 g     F .text	00000030 alt_icache_flush_all
05090e58 g     O .rwdata	00000004 alt_priority_mask
0508d7b4 g     F .text	0000009c alt_ic_irq_enable
05084854 g     F .text	00000024 __vfprintf_internal
0508ac04 g     F .text	00000060 __subdf3
05088388 g     F .text	000000b0 __lo0bits
05090e60 g     O .rwdata	00000008 alt_alarm_list
0508d67c g     F .text	0000005c _do_ctors
0508bb78 g     F .text	000000c8 close
0508c074 g     F .text	00000080 alt_load
0508b6a8 g     F .text	00000224 __pack_d
00000000  w      *UND*	00000000 free
050867b4 g     F .text	00000004 __sinit_lock_acquire
05088108 g     F .text	00000114 __multadd
0508e7f8 g     O .rodata	00000800 szMenu
050880e0 g     F .text	00000028 _Bfree



Disassembly of section .entry:

05080000 <__reset>:
#if NIOS2_ICACHE_SIZE > 0 && defined(ALT_ALLOW_CODE_AT_RESET) && !defined(ALT_SIM_OPTIMIZE)
    /* Assume the instruction cache size is always a power of two. */
#if NIOS2_ICACHE_SIZE > 0x8000
    movhi r2, %hi(NIOS2_ICACHE_SIZE)
#else
    movui r2, NIOS2_ICACHE_SIZE
 5080000:	00840014 	movui	r2,4096
#endif

0:
    initi r2
 5080004:	1001483a 	initi	r2
    addi r2, r2, -NIOS2_ICACHE_LINE_SIZE
 5080008:	10bff804 	addi	r2,r2,-32
    bgt r2, zero, 0b
 508000c:	00bffd16 	blt	zero,r2,5080004 <__reset+0x4>
 * Jump to the _start entry point in the .text section if reset code
 * is allowed or if optimizing for RTL simulation.
 */
#if defined(ALT_ALLOW_CODE_AT_RESET) || defined(ALT_SIM_OPTIMIZE)
    /* Jump to the _start entry point in the .text section. */
    movhi r1, %hi(_start)
 5080010:	00414234 	movhi	at,1288
    ori r1, r1, %lo(_start)
 5080014:	08406e14 	ori	at,at,440
    jmp r1
 5080018:	0800683a 	jmp	at
 508001c:	00000000 	call	0 <__alt_mem_sdram>

Disassembly of section .exceptions:

05080020 <alt_exception>:

#else /* ALT_EXCEPTION_STACK disabled */
        /* 
         * Reserve space on normal stack for registers about to be pushed.
         */
        addi  sp, sp, -76
 5080020:	deffed04 	addi	sp,sp,-76
         * documentation for details).
         *
         * Leave a gap in the stack frame at 4(sp) for the muldiv handler to
         * store zero into.
         */
        stw   ra,  0(sp)
 5080024:	dfc00015 	stw	ra,0(sp)
        stw   r1,   8(sp)
 5080028:	d8400215 	stw	at,8(sp)
        stw   r2,  12(sp)
 508002c:	d8800315 	stw	r2,12(sp)
        stw   r3,  16(sp)
 5080030:	d8c00415 	stw	r3,16(sp)
        stw   r4,  20(sp)
 5080034:	d9000515 	stw	r4,20(sp)
        stw   r5,  24(sp)
 5080038:	d9400615 	stw	r5,24(sp)
        stw   r6,  28(sp)
 508003c:	d9800715 	stw	r6,28(sp)
        stw   r7,  32(sp)
 5080040:	d9c00815 	stw	r7,32(sp)
        rdctl r5, estatus   /* Read early to avoid usage stall */
 5080044:	000b307a 	rdctl	r5,estatus
        stw   r8,  36(sp)
 5080048:	da000915 	stw	r8,36(sp)
        stw   r9,  40(sp)
 508004c:	da400a15 	stw	r9,40(sp)
        stw   r10, 44(sp)
 5080050:	da800b15 	stw	r10,44(sp)
        stw   r11, 48(sp)
 5080054:	dac00c15 	stw	r11,48(sp)
        stw   r12, 52(sp)
 5080058:	db000d15 	stw	r12,52(sp)
        stw   r13, 56(sp)
 508005c:	db400e15 	stw	r13,56(sp)
        stw   r14, 60(sp)
 5080060:	db800f15 	stw	r14,60(sp)
        stw   r15, 64(sp)
 5080064:	dbc01015 	stw	r15,64(sp)
        /*
         * ea-4 contains the address of the instruction being executed
         * when the exception occured. For interrupt exceptions, we will
         * will be re-issue the isntruction. Store it in 72(sp)
         */
        stw   r5,  68(sp)  /* estatus */
 5080068:	d9401115 	stw	r5,68(sp)
        addi  r15, ea, -4  /* instruction that caused exception */
 508006c:	ebffff04 	addi	r15,ea,-4
        stw   r15,  72(sp)
 5080070:	dbc01215 	stw	r15,72(sp)
#else
        /*
         * Test to see if the exception was a software exception or caused 
         * by an external interrupt, and vector accordingly.
         */
        rdctl r4, ipending
 5080074:	0009313a 	rdctl	r4,ipending
        andi  r2, r5, 1
 5080078:	2880004c 	andi	r2,r5,1
        beq   r2, zero, .Lnot_irq
 508007c:	10000326 	beq	r2,zero,508008c <alt_exception+0x6c>
        beq   r4, zero, .Lnot_irq
 5080080:	20000226 	beq	r4,zero,508008c <alt_exception+0x6c>
        /*
         * Now that all necessary registers have been preserved, call 
         * alt_irq_handler() to process the interrupts.
         */

        call alt_irq_handler
 5080084:	50800ec0 	call	50800ec <alt_irq_handler>

        .section .exceptions.irqreturn, "xa"

        br    .Lexception_exit
 5080088:	00000306 	br	5080098 <alt_exception_unknown+0x4>
         * upon completion, so we write ea (address of instruction *after*
         * the one where the exception occured) into 72(sp). The actual
         * instruction that caused the exception is written in r2, which these
         * handlers will utilize.
         */
        stw   ea,  72(sp)  /* Don't re-issue */
 508008c:	df401215 	stw	ea,72(sp)
        ldw   r2, -4(ea)   /* Instruction that caused exception */
 5080090:	e8bfff17 	ldw	r2,-4(ea)

05080094 <alt_exception_unknown>:
#ifdef NIOS2_HAS_DEBUG_STUB
       /*
        *  Either tell the user now (if there is a debugger attached) or go into
        *  the debug monitor which will loop until a debugger is attached.
        */
        break
 5080094:	003da03a 	break	0
        /* 
         * Restore the saved registers, so that all general purpose registers 
         * have been restored to their state at the time the interrupt occured.
         */

        ldw   r5,  68(sp)
 5080098:	d9401117 	ldw	r5,68(sp)
        ldw   ea,  72(sp)  /* This becomes the PC once eret is executed */
 508009c:	df401217 	ldw	ea,72(sp)
        ldw   ra,   0(sp)
 50800a0:	dfc00017 	ldw	ra,0(sp)

        wrctl estatus, r5
 50800a4:	2801707a 	wrctl	estatus,r5

        ldw   r1,   8(sp)
 50800a8:	d8400217 	ldw	at,8(sp)
        ldw   r2,  12(sp)
 50800ac:	d8800317 	ldw	r2,12(sp)
        ldw   r3,  16(sp)
 50800b0:	d8c00417 	ldw	r3,16(sp)
        ldw   r4,  20(sp)
 50800b4:	d9000517 	ldw	r4,20(sp)
        ldw   r5,  24(sp)
 50800b8:	d9400617 	ldw	r5,24(sp)
        ldw   r6,  28(sp)
 50800bc:	d9800717 	ldw	r6,28(sp)
        ldw   r7,  32(sp)
 50800c0:	d9c00817 	ldw	r7,32(sp)

#if defined(ALT_EXCEPTION_STACK) && defined(ALT_STACK_CHECK)
        ldw   et, %gprel(alt_exception_old_stack_limit)(gp)
#endif

        ldw   r8,  36(sp)
 50800c4:	da000917 	ldw	r8,36(sp)
        ldw   r9,  40(sp)
 50800c8:	da400a17 	ldw	r9,40(sp)
        ldw   r10, 44(sp)
 50800cc:	da800b17 	ldw	r10,44(sp)
        ldw   r11, 48(sp)
 50800d0:	dac00c17 	ldw	r11,48(sp)
        ldw   r12, 52(sp)
 50800d4:	db000d17 	ldw	r12,52(sp)
        ldw   r13, 56(sp)
 50800d8:	db400e17 	ldw	r13,56(sp)
        ldw   r14, 60(sp)
 50800dc:	db800f17 	ldw	r14,60(sp)
        ldw   r15, 64(sp)
 50800e0:	dbc01017 	ldw	r15,64(sp)
        stw   et, %gprel(alt_stack_limit_value)(gp)
        stw   zero, %gprel(alt_exception_old_stack_limit)(gp)
#endif /* ALT_STACK_CHECK */
        ldw   sp,  76(sp)
#else /* ALT_EXCEPTION_STACK disabled */
        addi  sp, sp, 76
 50800e4:	dec01304 	addi	sp,sp,76

        /*
         * Return to the interrupted instruction.
         */

        eret
 50800e8:	ef80083a 	eret

050800ec <alt_irq_handler>:
 * instruction is present if the macro ALT_CI_INTERRUPT_VECTOR defined.
 */

void alt_irq_handler (void) __attribute__ ((section (".exceptions")));
void alt_irq_handler (void)
{
 50800ec:	defff904 	addi	sp,sp,-28
 50800f0:	dfc00615 	stw	ra,24(sp)
 50800f4:	df000515 	stw	fp,20(sp)
 50800f8:	df000504 	addi	fp,sp,20
  
  /*
   * Notify the operating system that we are at interrupt level.
   */ 
  
  ALT_OS_INT_ENTER();
 50800fc:	0001883a 	nop
#ifndef NIOS2_EIC_PRESENT
static ALT_INLINE alt_u32 ALT_ALWAYS_INLINE alt_irq_pending (void)
{
  alt_u32 active;

  NIOS2_READ_IPENDING (active);
 5080100:	0005313a 	rdctl	r2,ipending
 5080104:	e0bffe15 	stw	r2,-8(fp)

  return active;
 5080108:	e0bffe17 	ldw	r2,-8(fp)
   * Consider the case where the high priority interupt is asserted during
   * the interrupt entry sequence for a lower priority interrupt to see why
   * this is the case.
   */

  active = alt_irq_pending ();
 508010c:	e0bffb15 	stw	r2,-20(fp)

  do
  {
    i = 0;
 5080110:	e03ffd15 	stw	zero,-12(fp)
    mask = 1;
 5080114:	00800044 	movi	r2,1
 5080118:	e0bffc15 	stw	r2,-16(fp)
     * called to clear the interrupt condition.
     */

    do
    {
      if (active & mask)
 508011c:	e0fffb17 	ldw	r3,-20(fp)
 5080120:	e0bffc17 	ldw	r2,-16(fp)
 5080124:	1884703a 	and	r2,r3,r2
 5080128:	10001726 	beq	r2,zero,5080188 <alt_irq_handler+0x9c>
      { 
#ifdef ALT_ENHANCED_INTERRUPT_API_PRESENT
        alt_irq[i].handler(alt_irq[i].context); 
 508012c:	00c14274 	movhi	r3,1289
 5080130:	18ca5804 	addi	r3,r3,10592
 5080134:	e0bffd17 	ldw	r2,-12(fp)
 5080138:	100490fa 	slli	r2,r2,3
 508013c:	1885883a 	add	r2,r3,r2
 5080140:	10c00017 	ldw	r3,0(r2)
 5080144:	01014274 	movhi	r4,1289
 5080148:	210a5804 	addi	r4,r4,10592
 508014c:	e0bffd17 	ldw	r2,-12(fp)
 5080150:	100490fa 	slli	r2,r2,3
 5080154:	2085883a 	add	r2,r4,r2
 5080158:	10800104 	addi	r2,r2,4
 508015c:	10800017 	ldw	r2,0(r2)
 5080160:	1009883a 	mov	r4,r2
 5080164:	183ee83a 	callr	r3
#else
        alt_irq[i].handler(alt_irq[i].context, i); 
#endif
        break;
 5080168:	0001883a 	nop
#ifndef NIOS2_EIC_PRESENT
static ALT_INLINE alt_u32 ALT_ALWAYS_INLINE alt_irq_pending (void)
{
  alt_u32 active;

  NIOS2_READ_IPENDING (active);
 508016c:	0005313a 	rdctl	r2,ipending
 5080170:	e0bfff15 	stw	r2,-4(fp)

  return active;
 5080174:	e0bfff17 	ldw	r2,-4(fp)
      mask <<= 1;
      i++;

    } while (1);

    active = alt_irq_pending ();
 5080178:	e0bffb15 	stw	r2,-20(fp)
    
  } while (active);
 508017c:	e0bffb17 	ldw	r2,-20(fp)
 5080180:	103fe31e 	bne	r2,zero,5080110 <alt_irq_handler+0x24>

  /*
   * Notify the operating system that interrupt processing is complete.
   */ 

  ALT_OS_INT_EXIT();
 5080184:	00000706 	br	50801a4 <alt_irq_handler+0xb8>
#else
        alt_irq[i].handler(alt_irq[i].context, i); 
#endif
        break;
      }
      mask <<= 1;
 5080188:	e0bffc17 	ldw	r2,-16(fp)
 508018c:	1085883a 	add	r2,r2,r2
 5080190:	e0bffc15 	stw	r2,-16(fp)
      i++;
 5080194:	e0bffd17 	ldw	r2,-12(fp)
 5080198:	10800044 	addi	r2,r2,1
 508019c:	e0bffd15 	stw	r2,-12(fp)

    } while (1);
 50801a0:	003fde06 	br	508011c <alt_irq_handler+0x30>
  /*
   * Notify the operating system that interrupt processing is complete.
   */ 

  ALT_OS_INT_EXIT();
}
 50801a4:	e037883a 	mov	sp,fp
 50801a8:	dfc00117 	ldw	ra,4(sp)
 50801ac:	df000017 	ldw	fp,0(sp)
 50801b0:	dec00204 	addi	sp,sp,8
 50801b4:	f800283a 	ret

Disassembly of section .text:

050801b8 <_start>:

    /* Assume the data cache size is always a power of two. */
#if NIOS2_DCACHE_SIZE > 0x8000
    movhi r2, %hi(NIOS2_DCACHE_SIZE)
#else
    movui r2, NIOS2_DCACHE_SIZE
 50801b8:	00820014 	movui	r2,2048
#endif

0:
    initd 0(r2)
 50801bc:	10000033 	initd	0(r2)
#ifdef NIOS2_ECC_PRESENT
    addi r2, r2, -4
#else
    addi r2, r2, -NIOS2_DCACHE_LINE_SIZE
 50801c0:	10bff804 	addi	r2,r2,-32
#endif
    bgt r2, zero, 0b
 50801c4:	00bffd16 	blt	zero,r2,50801bc <_start+0x4>

    /*
     * Now that the caches are initialized, set up the stack pointer and global pointer.
     * The values provided by the linker are assumed to be correctly aligned.
     */
    movhi sp, %hi(__alt_stack_pointer)
 50801c8:	06c14334 	movhi	sp,1292
    ori sp, sp, %lo(__alt_stack_pointer)
 50801cc:	def88014 	ori	sp,sp,57856
    movhi gp, %hi(_gp)
 50801d0:	06814274 	movhi	gp,1289
    ori gp, gp, %lo(_gp)
 50801d4:	d6a38b14 	ori	gp,gp,36396
 */
#ifndef ALT_SIM_OPTIMIZE
    /* Log that the BSS is about to be cleared. */
    ALT_LOG_PUTS(alt_log_msg_bss)

    movhi r2, %hi(__bss_start)
 50801d8:	00814274 	movhi	r2,1289
    ori r2, r2, %lo(__bss_start)
 50801dc:	108a3414 	ori	r2,r2,10448

    movhi r3, %hi(__bss_end)
 50801e0:	00c14274 	movhi	r3,1289
    ori r3, r3, %lo(__bss_end)
 50801e4:	18cafc14 	ori	r3,r3,11248

    beq r2, r3, 1f
 50801e8:	10c00326 	beq	r2,r3,50801f8 <_start+0x40>

0:
    stw zero, (r2)
 50801ec:	10000015 	stw	zero,0(r2)
    addi r2, r2, 4
 50801f0:	10800104 	addi	r2,r2,4
    bltu r2, r3, 0b
 50801f4:	10fffd36 	bltu	r2,r3,50801ec <_start+0x34>
     * section aren't defined until alt_load() has been called).
     */
    mov   et, zero
#endif

    call alt_load
 50801f8:	508c0740 	call	508c074 <alt_load>

    /* Log that alt_main is about to be called. */
    ALT_LOG_PUTS(alt_log_msg_alt_main)

    /* Call the C entry point. It should never return. */
    call alt_main
 50801fc:	508c2140 	call	508c214 <alt_main>

05080200 <alt_after_alt_main>:

    /* Wait in infinite loop in case alt_main does return. */
alt_after_alt_main:
    br alt_after_alt_main
 5080200:	003fff06 	br	5080200 <alt_after_alt_main>

05080204 <AUDIO_Init>:

/////////////////////////////////////////////////////////////////////////
///////////// External function body ////////////////////////////////////
/////////////////////////////////////////////////////////////////////////

bool AUDIO_Init(void){
 5080204:	defffd04 	addi	sp,sp,-12
 5080208:	dfc00215 	stw	ra,8(sp)
 508020c:	df000115 	stw	fp,4(sp)
 5080210:	df000104 	addi	fp,sp,4
   bool bSuccess = TRUE;
 5080214:	00800044 	movi	r2,1
 5080218:	e0bfff15 	stw	r2,-4(fp)
    AUDIO_DEBUG(("[AUDIO] AUDIO_Init...\r\n"));
 508021c:	01014274 	movhi	r4,1289
 5080220:	21399204 	addi	r4,r4,-6584
 5080224:	5081a480 	call	5081a48 <myprintf>

    if (bSuccess)
 5080228:	e0bfff17 	ldw	r2,-4(fp)
 508022c:	10000426 	beq	r2,zero,5080240 <AUDIO_Init+0x3c>
        bSuccess = aduio_RegWrite(15, 0x0000);  // reset
 5080230:	010003c4 	movi	r4,15
 5080234:	000b883a 	mov	r5,zero
 5080238:	5080cfc0 	call	5080cfc <aduio_RegWrite>
 508023c:	e0bfff15 	stw	r2,-4(fp)
        
    if (bSuccess)
 5080240:	e0bfff17 	ldw	r2,-4(fp)
 5080244:	10000426 	beq	r2,zero,5080258 <AUDIO_Init+0x54>
        bSuccess = aduio_RegWrite(9, 0x0000);  // inactive interface         
 5080248:	01000244 	movi	r4,9
 508024c:	000b883a 	mov	r5,zero
 5080250:	5080cfc0 	call	5080cfc <aduio_RegWrite>
 5080254:	e0bfff15 	stw	r2,-4(fp)
       
    //usleep(20*1000);    
    if (bSuccess)
 5080258:	e0bfff17 	ldw	r2,-4(fp)
 508025c:	10000426 	beq	r2,zero,5080270 <AUDIO_Init+0x6c>
        bSuccess = aduio_RegWrite(0, 0x0017);  // Left Line In: set left line in volume
 5080260:	0009883a 	mov	r4,zero
 5080264:	014005c4 	movi	r5,23
 5080268:	5080cfc0 	call	5080cfc <aduio_RegWrite>
 508026c:	e0bfff15 	stw	r2,-4(fp)
        
    if (bSuccess)
 5080270:	e0bfff17 	ldw	r2,-4(fp)
 5080274:	10000426 	beq	r2,zero,5080288 <AUDIO_Init+0x84>
        bSuccess = aduio_RegWrite(1, 0x0017);  // Right Line In: set right line in volume
 5080278:	01000044 	movi	r4,1
 508027c:	014005c4 	movi	r5,23
 5080280:	5080cfc0 	call	5080cfc <aduio_RegWrite>
 5080284:	e0bfff15 	stw	r2,-4(fp)
        
    if (bSuccess)
 5080288:	e0bfff17 	ldw	r2,-4(fp)
 508028c:	10000426 	beq	r2,zero,50802a0 <AUDIO_Init+0x9c>
        bSuccess = aduio_RegWrite(2, 0x005B);  // Left Headphone Out: set left line out volume
 5080290:	01000084 	movi	r4,2
 5080294:	014016c4 	movi	r5,91
 5080298:	5080cfc0 	call	5080cfc <aduio_RegWrite>
 508029c:	e0bfff15 	stw	r2,-4(fp)
        
    if (bSuccess)
 50802a0:	e0bfff17 	ldw	r2,-4(fp)
 50802a4:	10000426 	beq	r2,zero,50802b8 <AUDIO_Init+0xb4>
        bSuccess = aduio_RegWrite(3, 0x005B);  // Right Headphone Out: set right line out volume
 50802a8:	010000c4 	movi	r4,3
 50802ac:	014016c4 	movi	r5,91
 50802b0:	5080cfc0 	call	5080cfc <aduio_RegWrite>
 50802b4:	e0bfff15 	stw	r2,-4(fp)
        
    if (bSuccess)      
 50802b8:	e0bfff17 	ldw	r2,-4(fp)
 50802bc:	10000426 	beq	r2,zero,50802d0 <AUDIO_Init+0xcc>
        bSuccess = aduio_RegWrite(4, 0x0015);  // Analogue Audio Path Control: set mic as input and boost it, and enable dac         
 50802c0:	01000104 	movi	r4,4
 50802c4:	01400544 	movi	r5,21
 50802c8:	5080cfc0 	call	5080cfc <aduio_RegWrite>
 50802cc:	e0bfff15 	stw	r2,-4(fp)
                
    if (bSuccess)
 50802d0:	e0bfff17 	ldw	r2,-4(fp)
 50802d4:	10000426 	beq	r2,zero,50802e8 <AUDIO_Init+0xe4>
        bSuccess = aduio_RegWrite(5, 0x0000);  // Digital Audio Path Control: disable soft mute         
 50802d8:	01000144 	movi	r4,5
 50802dc:	000b883a 	mov	r5,zero
 50802e0:	5080cfc0 	call	5080cfc <aduio_RegWrite>
 50802e4:	e0bfff15 	stw	r2,-4(fp)

    if (bSuccess)
 50802e8:	e0bfff17 	ldw	r2,-4(fp)
 50802ec:	10000426 	beq	r2,zero,5080300 <AUDIO_Init+0xfc>
        bSuccess = aduio_RegWrite(6, 0);  // power down control: power on all         
 50802f0:	01000184 	movi	r4,6
 50802f4:	000b883a 	mov	r5,zero
 50802f8:	5080cfc0 	call	5080cfc <aduio_RegWrite>
 50802fc:	e0bfff15 	stw	r2,-4(fp)

    if (bSuccess)
 5080300:	e0bfff17 	ldw	r2,-4(fp)
 5080304:	10000426 	beq	r2,zero,5080318 <AUDIO_Init+0x114>
        bSuccess = aduio_RegWrite(7, 0x0042);  // I2S, iwl=16-bits, Enable Master Mode         
 5080308:	010001c4 	movi	r4,7
 508030c:	01401084 	movi	r5,66
 5080310:	5080cfc0 	call	5080cfc <aduio_RegWrite>
 5080314:	e0bfff15 	stw	r2,-4(fp)
//        bSuccess = aduio_RegWrite(7, 0x0041);  // MSB-First, left justified, iwl=16-bits, Enable Master Mode         

    if (bSuccess)
 5080318:	e0bfff17 	ldw	r2,-4(fp)
 508031c:	10000426 	beq	r2,zero,5080330 <AUDIO_Init+0x12c>
        bSuccess = aduio_RegWrite(8, 0x0002);  // Normal, Base OVer-Sampleing Rate 384 fs (BOSR=1)         
 5080320:	01000204 	movi	r4,8
 5080324:	01400084 	movi	r5,2
 5080328:	5080cfc0 	call	5080cfc <aduio_RegWrite>
 508032c:	e0bfff15 	stw	r2,-4(fp)


    if (bSuccess)
 5080330:	e0bfff17 	ldw	r2,-4(fp)
 5080334:	10000426 	beq	r2,zero,5080348 <AUDIO_Init+0x144>
        bSuccess = aduio_RegWrite(9, 0x0001);  // active interface
 5080338:	01000244 	movi	r4,9
 508033c:	01400044 	movi	r5,1
 5080340:	5080cfc0 	call	5080cfc <aduio_RegWrite>
 5080344:	e0bfff15 	stw	r2,-4(fp)
        
        
         
    AUDIO_DEBUG(("[AUDIO] AUDIO_Init %s\r\n", bSuccess?"success":"fail"));        
 5080348:	e0bfff17 	ldw	r2,-4(fp)
 508034c:	10000326 	beq	r2,zero,508035c <AUDIO_Init+0x158>
 5080350:	00814274 	movhi	r2,1289
 5080354:	10b99804 	addi	r2,r2,-6560
 5080358:	00000206 	br	5080364 <AUDIO_Init+0x160>
 508035c:	00814274 	movhi	r2,1289
 5080360:	10b99a04 	addi	r2,r2,-6552
 5080364:	01014274 	movhi	r4,1289
 5080368:	21399c04 	addi	r4,r4,-6544
 508036c:	100b883a 	mov	r5,r2
 5080370:	5081a480 	call	5081a48 <myprintf>
    
    return bSuccess;        
 5080374:	e0bfff17 	ldw	r2,-4(fp)
         
}
 5080378:	e037883a 	mov	sp,fp
 508037c:	dfc00117 	ldw	ra,4(sp)
 5080380:	df000017 	ldw	fp,0(sp)
 5080384:	dec00204 	addi	sp,sp,8
 5080388:	f800283a 	ret

0508038c <AUDIO_InterfaceActive>:

bool AUDIO_InterfaceActive(bool bActive){
 508038c:	defffc04 	addi	sp,sp,-16
 5080390:	dfc00315 	stw	ra,12(sp)
 5080394:	df000215 	stw	fp,8(sp)
 5080398:	df000204 	addi	fp,sp,8
 508039c:	e13fff15 	stw	r4,-4(fp)
    bool bSuccess;
    bSuccess = aduio_RegWrite(9, bActive?0x0001:0x0000); 
 50803a0:	e0bfff17 	ldw	r2,-4(fp)
 50803a4:	1004c03a 	cmpne	r2,r2,zero
 50803a8:	10803fcc 	andi	r2,r2,255
 50803ac:	01000244 	movi	r4,9
 50803b0:	100b883a 	mov	r5,r2
 50803b4:	5080cfc0 	call	5080cfc <aduio_RegWrite>
 50803b8:	e0bffe15 	stw	r2,-8(fp)
    return bSuccess;
 50803bc:	e0bffe17 	ldw	r2,-8(fp)
}
 50803c0:	e037883a 	mov	sp,fp
 50803c4:	dfc00117 	ldw	ra,4(sp)
 50803c8:	df000017 	ldw	fp,0(sp)
 50803cc:	dec00204 	addi	sp,sp,8
 50803d0:	f800283a 	ret

050803d4 <AUDIO_MicBoost>:

bool AUDIO_MicBoost(bool bBoost){
 50803d4:	defffb04 	addi	sp,sp,-20
 50803d8:	dfc00415 	stw	ra,16(sp)
 50803dc:	df000315 	stw	fp,12(sp)
 50803e0:	df000304 	addi	fp,sp,12
 50803e4:	e13fff15 	stw	r4,-4(fp)
    bool bSuccess;
    alt_u16 control;
    control = reg_file[4];
 50803e8:	00814274 	movhi	r2,1289
 50803ec:	108a4404 	addi	r2,r2,10512
 50803f0:	1080020b 	ldhu	r2,8(r2)
 50803f4:	e0bffd0d 	sth	r2,-12(fp)
    if (bBoost)
 50803f8:	e0bfff17 	ldw	r2,-4(fp)
 50803fc:	10000426 	beq	r2,zero,5080410 <AUDIO_MicBoost+0x3c>
        control |= 0x0001;
 5080400:	e0bffd0b 	ldhu	r2,-12(fp)
 5080404:	10800054 	ori	r2,r2,1
 5080408:	e0bffd0d 	sth	r2,-12(fp)
 508040c:	00000406 	br	5080420 <AUDIO_MicBoost+0x4c>
    else        
        control &= 0xFFFE;
 5080410:	e0fffd0b 	ldhu	r3,-12(fp)
 5080414:	00bfff84 	movi	r2,-2
 5080418:	1884703a 	and	r2,r3,r2
 508041c:	e0bffd0d 	sth	r2,-12(fp)
    bSuccess = aduio_RegWrite(4, control);  // Left Line In: set left line in volume
 5080420:	e0bffd0b 	ldhu	r2,-12(fp)
 5080424:	01000104 	movi	r4,4
 5080428:	100b883a 	mov	r5,r2
 508042c:	5080cfc0 	call	5080cfc <aduio_RegWrite>
 5080430:	e0bffe15 	stw	r2,-8(fp)
    return bSuccess;
 5080434:	e0bffe17 	ldw	r2,-8(fp)
}
 5080438:	e037883a 	mov	sp,fp
 508043c:	dfc00117 	ldw	ra,4(sp)
 5080440:	df000017 	ldw	fp,0(sp)
 5080444:	dec00204 	addi	sp,sp,8
 5080448:	f800283a 	ret

0508044c <AUDIO_AdcEnableHighPassFilter>:

bool AUDIO_AdcEnableHighPassFilter(bool bEnable){
 508044c:	defffb04 	addi	sp,sp,-20
 5080450:	dfc00415 	stw	ra,16(sp)
 5080454:	df000315 	stw	fp,12(sp)
 5080458:	df000304 	addi	fp,sp,12
 508045c:	e13fff15 	stw	r4,-4(fp)
    bool bSuccess;
    alt_u16 control;
    control = reg_file[5];
 5080460:	00814274 	movhi	r2,1289
 5080464:	108a4404 	addi	r2,r2,10512
 5080468:	1080028b 	ldhu	r2,10(r2)
 508046c:	e0bffd0d 	sth	r2,-12(fp)
    if (bEnable)
 5080470:	e0bfff17 	ldw	r2,-4(fp)
 5080474:	10000526 	beq	r2,zero,508048c <AUDIO_AdcEnableHighPassFilter+0x40>
        control &= 0xFFFE;
 5080478:	e0fffd0b 	ldhu	r3,-12(fp)
 508047c:	00bfff84 	movi	r2,-2
 5080480:	1884703a 	and	r2,r3,r2
 5080484:	e0bffd0d 	sth	r2,-12(fp)
 5080488:	00000306 	br	5080498 <AUDIO_AdcEnableHighPassFilter+0x4c>
    else        
        control |= 0x0001;
 508048c:	e0bffd0b 	ldhu	r2,-12(fp)
 5080490:	10800054 	ori	r2,r2,1
 5080494:	e0bffd0d 	sth	r2,-12(fp)
    bSuccess = aduio_RegWrite(5, control);  // Left Line In: set left line in volume
 5080498:	e0bffd0b 	ldhu	r2,-12(fp)
 508049c:	01000144 	movi	r4,5
 50804a0:	100b883a 	mov	r5,r2
 50804a4:	5080cfc0 	call	5080cfc <aduio_RegWrite>
 50804a8:	e0bffe15 	stw	r2,-8(fp)
    return bSuccess;    
 50804ac:	e0bffe17 	ldw	r2,-8(fp)
}
 50804b0:	e037883a 	mov	sp,fp
 50804b4:	dfc00117 	ldw	ra,4(sp)
 50804b8:	df000017 	ldw	fp,0(sp)
 50804bc:	dec00204 	addi	sp,sp,8
 50804c0:	f800283a 	ret

050804c4 <AUDIO_DacDeemphasisControl>:



bool AUDIO_DacDeemphasisControl(alt_u8 deemphasis_type){
 50804c4:	defffb04 	addi	sp,sp,-20
 50804c8:	dfc00415 	stw	ra,16(sp)
 50804cc:	df000315 	stw	fp,12(sp)
 50804d0:	df000304 	addi	fp,sp,12
 50804d4:	2005883a 	mov	r2,r4
 50804d8:	e0bfff05 	stb	r2,-4(fp)
    bool bSuccess;
    alt_u16 control;
    control = reg_file[5];
 50804dc:	00814274 	movhi	r2,1289
 50804e0:	108a4404 	addi	r2,r2,10512
 50804e4:	1080028b 	ldhu	r2,10(r2)
 50804e8:	e0bffd0d 	sth	r2,-12(fp)
    control &= 0xFFF9;
 50804ec:	e0fffd0b 	ldhu	r3,-12(fp)
 50804f0:	00bffe44 	movi	r2,-7
 50804f4:	1884703a 	and	r2,r3,r2
 50804f8:	e0bffd0d 	sth	r2,-12(fp)
    switch(deemphasis_type){
 50804fc:	e0bfff03 	ldbu	r2,-4(fp)
 5080500:	10c000a0 	cmpeqi	r3,r2,2
 5080504:	1800081e 	bne	r3,zero,5080528 <AUDIO_DacDeemphasisControl+0x64>
 5080508:	10c000e0 	cmpeqi	r3,r2,3
 508050c:	18000a1e 	bne	r3,zero,5080538 <AUDIO_DacDeemphasisControl+0x74>
 5080510:	10800060 	cmpeqi	r2,r2,1
 5080514:	10000c26 	beq	r2,zero,5080548 <AUDIO_DacDeemphasisControl+0x84>
        case DEEMPHASIS_48K: control |= ((0x03) << 1); break;
 5080518:	e0bffd0b 	ldhu	r2,-12(fp)
 508051c:	10800194 	ori	r2,r2,6
 5080520:	e0bffd0d 	sth	r2,-12(fp)
 5080524:	00000806 	br	5080548 <AUDIO_DacDeemphasisControl+0x84>
        case DEEMPHASIS_44K1: control |= ((0x02) << 1); break;
 5080528:	e0bffd0b 	ldhu	r2,-12(fp)
 508052c:	10800114 	ori	r2,r2,4
 5080530:	e0bffd0d 	sth	r2,-12(fp)
 5080534:	00000406 	br	5080548 <AUDIO_DacDeemphasisControl+0x84>
        case DEEMPHASIS_32K: control |= ((0x01) << 1); break;
 5080538:	e0bffd0b 	ldhu	r2,-12(fp)
 508053c:	10800094 	ori	r2,r2,2
 5080540:	e0bffd0d 	sth	r2,-12(fp)
 5080544:	0001883a 	nop
    }
    bSuccess = aduio_RegWrite(5, control);  // Left Line In: set left line in volume
 5080548:	e0bffd0b 	ldhu	r2,-12(fp)
 508054c:	01000144 	movi	r4,5
 5080550:	100b883a 	mov	r5,r2
 5080554:	5080cfc0 	call	5080cfc <aduio_RegWrite>
 5080558:	e0bffe15 	stw	r2,-8(fp)
    return bSuccess;       
 508055c:	e0bffe17 	ldw	r2,-8(fp)
}
 5080560:	e037883a 	mov	sp,fp
 5080564:	dfc00117 	ldw	ra,4(sp)
 5080568:	df000017 	ldw	fp,0(sp)
 508056c:	dec00204 	addi	sp,sp,8
 5080570:	f800283a 	ret

05080574 <AUDIO_DacEnableZeroCross>:

bool AUDIO_DacEnableZeroCross(bool bEnable){
 5080574:	defffa04 	addi	sp,sp,-24
 5080578:	dfc00515 	stw	ra,20(sp)
 508057c:	df000415 	stw	fp,16(sp)
 5080580:	df000404 	addi	fp,sp,16
 5080584:	e13fff15 	stw	r4,-4(fp)
    bool bSuccess;
    alt_u16 control_l, control_r;
    alt_u16 mask;
    control_l = reg_file[2];
 5080588:	00814274 	movhi	r2,1289
 508058c:	108a4404 	addi	r2,r2,10512
 5080590:	1080010b 	ldhu	r2,4(r2)
 5080594:	e0bffd0d 	sth	r2,-12(fp)
    control_r = reg_file[3];
 5080598:	00814274 	movhi	r2,1289
 508059c:	108a4404 	addi	r2,r2,10512
 50805a0:	1080018b 	ldhu	r2,6(r2)
 50805a4:	e0bffd8d 	sth	r2,-10(fp)
    mask = 0x01 << 7;
 50805a8:	00802004 	movi	r2,128
 50805ac:	e0bffe0d 	sth	r2,-8(fp)
    if (bEnable){
 50805b0:	e0bfff17 	ldw	r2,-4(fp)
 50805b4:	10000926 	beq	r2,zero,50805dc <AUDIO_DacEnableZeroCross+0x68>
        control_l |= mask;
 50805b8:	e0fffd0b 	ldhu	r3,-12(fp)
 50805bc:	e0bffe0b 	ldhu	r2,-8(fp)
 50805c0:	1884b03a 	or	r2,r3,r2
 50805c4:	e0bffd0d 	sth	r2,-12(fp)
        control_r |= mask;
 50805c8:	e0fffd8b 	ldhu	r3,-10(fp)
 50805cc:	e0bffe0b 	ldhu	r2,-8(fp)
 50805d0:	1884b03a 	or	r2,r3,r2
 50805d4:	e0bffd8d 	sth	r2,-10(fp)
 50805d8:	00000c06 	br	508060c <AUDIO_DacEnableZeroCross+0x98>
    }else{        
        control_l &= ~mask;
 50805dc:	e0bffe0b 	ldhu	r2,-8(fp)
 50805e0:	0084303a 	nor	r2,zero,r2
 50805e4:	1007883a 	mov	r3,r2
 50805e8:	e0bffd0b 	ldhu	r2,-12(fp)
 50805ec:	1884703a 	and	r2,r3,r2
 50805f0:	e0bffd0d 	sth	r2,-12(fp)
        control_r &= ~mask;
 50805f4:	e0bffe0b 	ldhu	r2,-8(fp)
 50805f8:	0084303a 	nor	r2,zero,r2
 50805fc:	1007883a 	mov	r3,r2
 5080600:	e0bffd8b 	ldhu	r2,-10(fp)
 5080604:	1884703a 	and	r2,r3,r2
 5080608:	e0bffd8d 	sth	r2,-10(fp)
    }        
    bSuccess = aduio_RegWrite(2, control_l);  // Left Line In: set left line in volume
 508060c:	e0bffd0b 	ldhu	r2,-12(fp)
 5080610:	01000084 	movi	r4,2
 5080614:	100b883a 	mov	r5,r2
 5080618:	5080cfc0 	call	5080cfc <aduio_RegWrite>
 508061c:	e0bffc15 	stw	r2,-16(fp)
    if (bSuccess)
 5080620:	e0bffc17 	ldw	r2,-16(fp)
 5080624:	10000526 	beq	r2,zero,508063c <AUDIO_DacEnableZeroCross+0xc8>
        bSuccess = aduio_RegWrite(3, control_r);  // Left Line In: set left line in volume
 5080628:	e0bffd8b 	ldhu	r2,-10(fp)
 508062c:	010000c4 	movi	r4,3
 5080630:	100b883a 	mov	r5,r2
 5080634:	5080cfc0 	call	5080cfc <aduio_RegWrite>
 5080638:	e0bffc15 	stw	r2,-16(fp)
    return bSuccess;      
 508063c:	e0bffc17 	ldw	r2,-16(fp)
}
 5080640:	e037883a 	mov	sp,fp
 5080644:	dfc00117 	ldw	ra,4(sp)
 5080648:	df000017 	ldw	fp,0(sp)
 508064c:	dec00204 	addi	sp,sp,8
 5080650:	f800283a 	ret

05080654 <AUDIO_DacEnableSoftMute>:

bool AUDIO_DacEnableSoftMute(bool bEnable){
 5080654:	defffb04 	addi	sp,sp,-20
 5080658:	dfc00415 	stw	ra,16(sp)
 508065c:	df000315 	stw	fp,12(sp)
 5080660:	df000304 	addi	fp,sp,12
 5080664:	e13fff15 	stw	r4,-4(fp)
    bool bSuccess;
    alt_u16 control;
    alt_u16 mask;
    control = reg_file[5];
 5080668:	00814274 	movhi	r2,1289
 508066c:	108a4404 	addi	r2,r2,10512
 5080670:	1080028b 	ldhu	r2,10(r2)
 5080674:	e0bffd0d 	sth	r2,-12(fp)
    mask = 0x01 << 3;
 5080678:	00800204 	movi	r2,8
 508067c:	e0bffd8d 	sth	r2,-10(fp)
    if (bEnable)
 5080680:	e0bfff17 	ldw	r2,-4(fp)
 5080684:	10000526 	beq	r2,zero,508069c <AUDIO_DacEnableSoftMute+0x48>
        control |= mask;
 5080688:	e0fffd0b 	ldhu	r3,-12(fp)
 508068c:	e0bffd8b 	ldhu	r2,-10(fp)
 5080690:	1884b03a 	or	r2,r3,r2
 5080694:	e0bffd0d 	sth	r2,-12(fp)
 5080698:	00000606 	br	50806b4 <AUDIO_DacEnableSoftMute+0x60>
    else        
        control &= ~mask;
 508069c:	e0bffd8b 	ldhu	r2,-10(fp)
 50806a0:	0084303a 	nor	r2,zero,r2
 50806a4:	1007883a 	mov	r3,r2
 50806a8:	e0bffd0b 	ldhu	r2,-12(fp)
 50806ac:	1884703a 	and	r2,r3,r2
 50806b0:	e0bffd0d 	sth	r2,-12(fp)
    bSuccess = aduio_RegWrite(5, control);  // Left Line In: set left line in volume
 50806b4:	e0bffd0b 	ldhu	r2,-12(fp)
 50806b8:	01000144 	movi	r4,5
 50806bc:	100b883a 	mov	r5,r2
 50806c0:	5080cfc0 	call	5080cfc <aduio_RegWrite>
 50806c4:	e0bffe15 	stw	r2,-8(fp)
    return bSuccess;      
 50806c8:	e0bffe17 	ldw	r2,-8(fp)
}
 50806cc:	e037883a 	mov	sp,fp
 50806d0:	dfc00117 	ldw	ra,4(sp)
 50806d4:	df000017 	ldw	fp,0(sp)
 50806d8:	dec00204 	addi	sp,sp,8
 50806dc:	f800283a 	ret

050806e0 <AUDIO_MicMute>:

bool AUDIO_MicMute(bool bMute){
 50806e0:	defffb04 	addi	sp,sp,-20
 50806e4:	dfc00415 	stw	ra,16(sp)
 50806e8:	df000315 	stw	fp,12(sp)
 50806ec:	df000304 	addi	fp,sp,12
 50806f0:	e13fff15 	stw	r4,-4(fp)
    bool bSuccess;
    alt_u16 control;
    alt_u16 mask;
    control = reg_file[4];
 50806f4:	00814274 	movhi	r2,1289
 50806f8:	108a4404 	addi	r2,r2,10512
 50806fc:	1080020b 	ldhu	r2,8(r2)
 5080700:	e0bffd0d 	sth	r2,-12(fp)
    mask = 0x01 << 1;
 5080704:	00800084 	movi	r2,2
 5080708:	e0bffd8d 	sth	r2,-10(fp)
    if (bMute)
 508070c:	e0bfff17 	ldw	r2,-4(fp)
 5080710:	10000526 	beq	r2,zero,5080728 <AUDIO_MicMute+0x48>
        control |= mask;
 5080714:	e0fffd0b 	ldhu	r3,-12(fp)
 5080718:	e0bffd8b 	ldhu	r2,-10(fp)
 508071c:	1884b03a 	or	r2,r3,r2
 5080720:	e0bffd0d 	sth	r2,-12(fp)
 5080724:	00000606 	br	5080740 <AUDIO_MicMute+0x60>
    else        
        control &= ~mask;
 5080728:	e0bffd8b 	ldhu	r2,-10(fp)
 508072c:	0084303a 	nor	r2,zero,r2
 5080730:	1007883a 	mov	r3,r2
 5080734:	e0bffd0b 	ldhu	r2,-12(fp)
 5080738:	1884703a 	and	r2,r3,r2
 508073c:	e0bffd0d 	sth	r2,-12(fp)
    bSuccess = aduio_RegWrite(4, control);  // Left Line In: set left line in volume
 5080740:	e0bffd0b 	ldhu	r2,-12(fp)
 5080744:	01000104 	movi	r4,4
 5080748:	100b883a 	mov	r5,r2
 508074c:	5080cfc0 	call	5080cfc <aduio_RegWrite>
 5080750:	e0bffe15 	stw	r2,-8(fp)
    return bSuccess;        
 5080754:	e0bffe17 	ldw	r2,-8(fp)
}
 5080758:	e037883a 	mov	sp,fp
 508075c:	dfc00117 	ldw	ra,4(sp)
 5080760:	df000017 	ldw	fp,0(sp)
 5080764:	dec00204 	addi	sp,sp,8
 5080768:	f800283a 	ret

0508076c <AUDIO_LineInMute>:

bool AUDIO_LineInMute(bool bMute){
 508076c:	defffa04 	addi	sp,sp,-24
 5080770:	dfc00515 	stw	ra,20(sp)
 5080774:	df000415 	stw	fp,16(sp)
 5080778:	df000404 	addi	fp,sp,16
 508077c:	e13fff15 	stw	r4,-4(fp)
    bool bSuccess;
    alt_u16 control_l, control_r;
    alt_u16 mask;
    control_l = reg_file[0];
 5080780:	00814274 	movhi	r2,1289
 5080784:	108a4404 	addi	r2,r2,10512
 5080788:	1080000b 	ldhu	r2,0(r2)
 508078c:	e0bffd0d 	sth	r2,-12(fp)
    control_r = reg_file[1];
 5080790:	00814274 	movhi	r2,1289
 5080794:	108a4404 	addi	r2,r2,10512
 5080798:	1080008b 	ldhu	r2,2(r2)
 508079c:	e0bffd8d 	sth	r2,-10(fp)
    mask = 0x01 << 7;
 50807a0:	00802004 	movi	r2,128
 50807a4:	e0bffe0d 	sth	r2,-8(fp)
    if (bMute){
 50807a8:	e0bfff17 	ldw	r2,-4(fp)
 50807ac:	10000926 	beq	r2,zero,50807d4 <AUDIO_LineInMute+0x68>
        control_l |= mask;
 50807b0:	e0fffd0b 	ldhu	r3,-12(fp)
 50807b4:	e0bffe0b 	ldhu	r2,-8(fp)
 50807b8:	1884b03a 	or	r2,r3,r2
 50807bc:	e0bffd0d 	sth	r2,-12(fp)
        control_r |= mask;
 50807c0:	e0fffd8b 	ldhu	r3,-10(fp)
 50807c4:	e0bffe0b 	ldhu	r2,-8(fp)
 50807c8:	1884b03a 	or	r2,r3,r2
 50807cc:	e0bffd8d 	sth	r2,-10(fp)
 50807d0:	00000c06 	br	5080804 <AUDIO_LineInMute+0x98>
    }else{        
        control_l &= ~mask;
 50807d4:	e0bffe0b 	ldhu	r2,-8(fp)
 50807d8:	0084303a 	nor	r2,zero,r2
 50807dc:	1007883a 	mov	r3,r2
 50807e0:	e0bffd0b 	ldhu	r2,-12(fp)
 50807e4:	1884703a 	and	r2,r3,r2
 50807e8:	e0bffd0d 	sth	r2,-12(fp)
        control_r &= ~mask;
 50807ec:	e0bffe0b 	ldhu	r2,-8(fp)
 50807f0:	0084303a 	nor	r2,zero,r2
 50807f4:	1007883a 	mov	r3,r2
 50807f8:	e0bffd8b 	ldhu	r2,-10(fp)
 50807fc:	1884703a 	and	r2,r3,r2
 5080800:	e0bffd8d 	sth	r2,-10(fp)
    }        
    bSuccess = aduio_RegWrite(0, control_l);  // Left Line In: set left line in volume
 5080804:	e0bffd0b 	ldhu	r2,-12(fp)
 5080808:	0009883a 	mov	r4,zero
 508080c:	100b883a 	mov	r5,r2
 5080810:	5080cfc0 	call	5080cfc <aduio_RegWrite>
 5080814:	e0bffc15 	stw	r2,-16(fp)
    if (bSuccess)
 5080818:	e0bffc17 	ldw	r2,-16(fp)
 508081c:	10000526 	beq	r2,zero,5080834 <AUDIO_LineInMute+0xc8>
        bSuccess = aduio_RegWrite(1, control_r);  // Left Line In: set left line in volume
 5080820:	e0bffd8b 	ldhu	r2,-10(fp)
 5080824:	01000044 	movi	r4,1
 5080828:	100b883a 	mov	r5,r2
 508082c:	5080cfc0 	call	5080cfc <aduio_RegWrite>
 5080830:	e0bffc15 	stw	r2,-16(fp)
    return bSuccess;        
 5080834:	e0bffc17 	ldw	r2,-16(fp)
}
 5080838:	e037883a 	mov	sp,fp
 508083c:	dfc00117 	ldw	ra,4(sp)
 5080840:	df000017 	ldw	fp,0(sp)
 5080844:	dec00204 	addi	sp,sp,8
 5080848:	f800283a 	ret

0508084c <AUDIO_SetInputSource>:



bool AUDIO_SetInputSource(alt_u8 InputSource){
 508084c:	defffb04 	addi	sp,sp,-20
 5080850:	dfc00415 	stw	ra,16(sp)
 5080854:	df000315 	stw	fp,12(sp)
 5080858:	df000304 	addi	fp,sp,12
 508085c:	2005883a 	mov	r2,r4
 5080860:	e0bfff05 	stb	r2,-4(fp)
    bool bSuccess;
    alt_u16 control;
    alt_u16 mask;
    control = reg_file[4];
 5080864:	00814274 	movhi	r2,1289
 5080868:	108a4404 	addi	r2,r2,10512
 508086c:	1080020b 	ldhu	r2,8(r2)
 5080870:	e0bffd0d 	sth	r2,-12(fp)
    mask = 0x01 << 2;
 5080874:	00800104 	movi	r2,4
 5080878:	e0bffd8d 	sth	r2,-10(fp)
    if (InputSource == SOURCE_MIC)
 508087c:	e0bfff03 	ldbu	r2,-4(fp)
 5080880:	1000051e 	bne	r2,zero,5080898 <AUDIO_SetInputSource+0x4c>
        control |= mask;
 5080884:	e0fffd0b 	ldhu	r3,-12(fp)
 5080888:	e0bffd8b 	ldhu	r2,-10(fp)
 508088c:	1884b03a 	or	r2,r3,r2
 5080890:	e0bffd0d 	sth	r2,-12(fp)
 5080894:	00000606 	br	50808b0 <AUDIO_SetInputSource+0x64>
    else        
        control &= ~mask;
 5080898:	e0bffd8b 	ldhu	r2,-10(fp)
 508089c:	0084303a 	nor	r2,zero,r2
 50808a0:	1007883a 	mov	r3,r2
 50808a4:	e0bffd0b 	ldhu	r2,-12(fp)
 50808a8:	1884703a 	and	r2,r3,r2
 50808ac:	e0bffd0d 	sth	r2,-12(fp)
    bSuccess = aduio_RegWrite(4, control);  // Left Line In: set left line in volume
 50808b0:	e0bffd0b 	ldhu	r2,-12(fp)
 50808b4:	01000104 	movi	r4,4
 50808b8:	100b883a 	mov	r5,r2
 50808bc:	5080cfc0 	call	5080cfc <aduio_RegWrite>
 50808c0:	e0bffe15 	stw	r2,-8(fp)
    return bSuccess;       
 50808c4:	e0bffe17 	ldw	r2,-8(fp)
}
 50808c8:	e037883a 	mov	sp,fp
 50808cc:	dfc00117 	ldw	ra,4(sp)
 50808d0:	df000017 	ldw	fp,0(sp)
 50808d4:	dec00204 	addi	sp,sp,8
 50808d8:	f800283a 	ret

050808dc <AUDIO_SetSampleRate>:

// See datasheet page 39
bool AUDIO_SetSampleRate(alt_u8 SampleRate){
 50808dc:	defffb04 	addi	sp,sp,-20
 50808e0:	dfc00415 	stw	ra,16(sp)
 50808e4:	df000315 	stw	fp,12(sp)
 50808e8:	df000304 	addi	fp,sp,12
 50808ec:	2005883a 	mov	r2,r4
 50808f0:	e0bfff05 	stb	r2,-4(fp)
    bool bSuccess;
    alt_u16 control;
    control = 0;
 50808f4:	e03ffd0d 	sth	zero,-12(fp)

    switch(SampleRate){
 50808f8:	e0bfff03 	ldbu	r2,-4(fp)
 50808fc:	10c001e8 	cmpgeui	r3,r2,7
 5080900:	1800221e 	bne	r3,zero,508098c <AUDIO_SetSampleRate+0xb0>
 5080904:	1085883a 	add	r2,r2,r2
 5080908:	1087883a 	add	r3,r2,r2
 508090c:	00814234 	movhi	r2,1288
 5080910:	10824804 	addi	r2,r2,2336
 5080914:	1885883a 	add	r2,r3,r2
 5080918:	10800017 	ldw	r2,0(r2)
 508091c:	1000683a 	jmp	r2
 5080920:	0508093c 	xorhi	r20,zero,8228
 5080924:	05080944 	movi	r20,8229
 5080928:	05080950 	cmplti	r20,zero,8229
 508092c:	0508095c 	xori	r20,zero,8229
 5080930:	05080968 	cmpgeui	r20,zero,8229
 5080934:	05080974 	movhi	r20,8229
 5080938:	05080980 	call	508098 <__alt_mem_sdram+0x508098>
         // MCLK = 18.432
        case RATE_ADC48K_DAC48K: control = (0x0) << 2; break;
 508093c:	e03ffd0d 	sth	zero,-12(fp)
 5080940:	00001206 	br	508098c <AUDIO_SetSampleRate+0xb0>
        case RATE_ADC48K_DAC8K: control = (0x1) << 2; break;
 5080944:	00800104 	movi	r2,4
 5080948:	e0bffd0d 	sth	r2,-12(fp)
 508094c:	00000f06 	br	508098c <AUDIO_SetSampleRate+0xb0>
        case RATE_ADC8K_DAC48K: control = (0x2) << 2; break;
 5080950:	00800204 	movi	r2,8
 5080954:	e0bffd0d 	sth	r2,-12(fp)
 5080958:	00000c06 	br	508098c <AUDIO_SetSampleRate+0xb0>
        case RATE_ADC8K_DAC8K: control = (0x3) << 2; break;
 508095c:	00800304 	movi	r2,12
 5080960:	e0bffd0d 	sth	r2,-12(fp)
 5080964:	00000906 	br	508098c <AUDIO_SetSampleRate+0xb0>
        case RATE_ADC32K_DAC32K: control = (0x6) << 2; break;
 5080968:	00800604 	movi	r2,24
 508096c:	e0bffd0d 	sth	r2,-12(fp)
 5080970:	00000606 	br	508098c <AUDIO_SetSampleRate+0xb0>
        case RATE_ADC96K_DAC96K: control = (0x7) << 2; break;
 5080974:	00800704 	movi	r2,28
 5080978:	e0bffd0d 	sth	r2,-12(fp)
 508097c:	00000306 	br	508098c <AUDIO_SetSampleRate+0xb0>
        case RATE_ADC44K1_DAC44K1: control = (0x8) << 2; break;
 5080980:	00800804 	movi	r2,32
 5080984:	e0bffd0d 	sth	r2,-12(fp)
 5080988:	0001883a 	nop
        // MCLK = 11.2896
      //  case RATE_ADC44K1_DAC8K: control = (0x9) << 2; break;
      //  case RATE_ADC8K_DAC44K1: control = (0xA) << 2; break;
    }
    control |= 0x02; // BOSR=1 (384fs = 384*48k = 18.432M)
 508098c:	e0bffd0b 	ldhu	r2,-12(fp)
 5080990:	10800094 	ori	r2,r2,2
 5080994:	e0bffd0d 	sth	r2,-12(fp)
        
    bSuccess = aduio_RegWrite(8, control);  // Left Line In: set left line in volume
 5080998:	e0bffd0b 	ldhu	r2,-12(fp)
 508099c:	01000204 	movi	r4,8
 50809a0:	100b883a 	mov	r5,r2
 50809a4:	5080cfc0 	call	5080cfc <aduio_RegWrite>
 50809a8:	e0bffe15 	stw	r2,-8(fp)
    return bSuccess;      
 50809ac:	e0bffe17 	ldw	r2,-8(fp)
}
 50809b0:	e037883a 	mov	sp,fp
 50809b4:	dfc00117 	ldw	ra,4(sp)
 50809b8:	df000017 	ldw	fp,0(sp)
 50809bc:	dec00204 	addi	sp,sp,8
 50809c0:	f800283a 	ret

050809c4 <AUDIO_SetLineInVol>:





bool AUDIO_SetLineInVol(alt_u16 l_vol, alt_u16 r_vol){
 50809c4:	defffa04 	addi	sp,sp,-24
 50809c8:	dfc00515 	stw	ra,20(sp)
 50809cc:	df000415 	stw	fp,16(sp)
 50809d0:	df000404 	addi	fp,sp,16
 50809d4:	2007883a 	mov	r3,r4
 50809d8:	2805883a 	mov	r2,r5
 50809dc:	e0fffe0d 	sth	r3,-8(fp)
 50809e0:	e0bfff0d 	sth	r2,-4(fp)
    bool bSuccess;
    alt_u16 control;
    
    // left
    control = reg_file[0];
 50809e4:	00814274 	movhi	r2,1289
 50809e8:	108a4404 	addi	r2,r2,10512
 50809ec:	1080000b 	ldhu	r2,0(r2)
 50809f0:	e0bffd0d 	sth	r2,-12(fp)
    control &= 0xFFE0;
 50809f4:	e0fffd0b 	ldhu	r3,-12(fp)
 50809f8:	00bff804 	movi	r2,-32
 50809fc:	1884703a 	and	r2,r3,r2
 5080a00:	e0bffd0d 	sth	r2,-12(fp)
    control += l_vol & 0x1F;
 5080a04:	e0bffe0b 	ldhu	r2,-8(fp)
 5080a08:	108007cc 	andi	r2,r2,31
 5080a0c:	1007883a 	mov	r3,r2
 5080a10:	e0bffd0b 	ldhu	r2,-12(fp)
 5080a14:	1885883a 	add	r2,r3,r2
 5080a18:	e0bffd0d 	sth	r2,-12(fp)
    bSuccess = aduio_RegWrite(0, control);
 5080a1c:	e0bffd0b 	ldhu	r2,-12(fp)
 5080a20:	0009883a 	mov	r4,zero
 5080a24:	100b883a 	mov	r5,r2
 5080a28:	5080cfc0 	call	5080cfc <aduio_RegWrite>
 5080a2c:	e0bffc15 	stw	r2,-16(fp)
    
    if (bSuccess){
 5080a30:	e0bffc17 	ldw	r2,-16(fp)
 5080a34:	10001326 	beq	r2,zero,5080a84 <AUDIO_SetLineInVol+0xc0>
        // right
        control = reg_file[1];
 5080a38:	00814274 	movhi	r2,1289
 5080a3c:	108a4404 	addi	r2,r2,10512
 5080a40:	1080008b 	ldhu	r2,2(r2)
 5080a44:	e0bffd0d 	sth	r2,-12(fp)
        control &= 0xFFE0;
 5080a48:	e0fffd0b 	ldhu	r3,-12(fp)
 5080a4c:	00bff804 	movi	r2,-32
 5080a50:	1884703a 	and	r2,r3,r2
 5080a54:	e0bffd0d 	sth	r2,-12(fp)
        control += r_vol & 0x1F;
 5080a58:	e0bfff0b 	ldhu	r2,-4(fp)
 5080a5c:	108007cc 	andi	r2,r2,31
 5080a60:	1007883a 	mov	r3,r2
 5080a64:	e0bffd0b 	ldhu	r2,-12(fp)
 5080a68:	1885883a 	add	r2,r3,r2
 5080a6c:	e0bffd0d 	sth	r2,-12(fp)
        bSuccess = aduio_RegWrite(1, control);        
 5080a70:	e0bffd0b 	ldhu	r2,-12(fp)
 5080a74:	01000044 	movi	r4,1
 5080a78:	100b883a 	mov	r5,r2
 5080a7c:	5080cfc0 	call	5080cfc <aduio_RegWrite>
 5080a80:	e0bffc15 	stw	r2,-16(fp)
    }
    
    AUDIO_DEBUG(("[AUDIO] set Line-In vol(%d,%d) %s\r\n", l_vol, r_vol, bSuccess?"success":"fail"));        
 5080a84:	e17ffe0b 	ldhu	r5,-8(fp)
 5080a88:	e0ffff0b 	ldhu	r3,-4(fp)
 5080a8c:	e0bffc17 	ldw	r2,-16(fp)
 5080a90:	10000326 	beq	r2,zero,5080aa0 <AUDIO_SetLineInVol+0xdc>
 5080a94:	00814274 	movhi	r2,1289
 5080a98:	10b99804 	addi	r2,r2,-6560
 5080a9c:	00000206 	br	5080aa8 <AUDIO_SetLineInVol+0xe4>
 5080aa0:	00814274 	movhi	r2,1289
 5080aa4:	10b99a04 	addi	r2,r2,-6552
 5080aa8:	01014274 	movhi	r4,1289
 5080aac:	2139a204 	addi	r4,r4,-6520
 5080ab0:	180d883a 	mov	r6,r3
 5080ab4:	100f883a 	mov	r7,r2
 5080ab8:	5081a480 	call	5081a48 <myprintf>
    return bSuccess;
 5080abc:	e0bffc17 	ldw	r2,-16(fp)
}
 5080ac0:	e037883a 	mov	sp,fp
 5080ac4:	dfc00117 	ldw	ra,4(sp)
 5080ac8:	df000017 	ldw	fp,0(sp)
 5080acc:	dec00204 	addi	sp,sp,8
 5080ad0:	f800283a 	ret

05080ad4 <AUDIO_SetLineOutVol>:

bool AUDIO_SetLineOutVol(alt_u16 l_vol, alt_u16 r_vol){
 5080ad4:	defffa04 	addi	sp,sp,-24
 5080ad8:	dfc00515 	stw	ra,20(sp)
 5080adc:	df000415 	stw	fp,16(sp)
 5080ae0:	df000404 	addi	fp,sp,16
 5080ae4:	2007883a 	mov	r3,r4
 5080ae8:	2805883a 	mov	r2,r5
 5080aec:	e0fffe0d 	sth	r3,-8(fp)
 5080af0:	e0bfff0d 	sth	r2,-4(fp)
    bool bSuccess;
    alt_u16 control;

 
    // left
    control = reg_file[2];
 5080af4:	00814274 	movhi	r2,1289
 5080af8:	108a4404 	addi	r2,r2,10512
 5080afc:	1080010b 	ldhu	r2,4(r2)
 5080b00:	e0bffd0d 	sth	r2,-12(fp)
    control &= 0xFF80;
 5080b04:	e0fffd0b 	ldhu	r3,-12(fp)
 5080b08:	00bfe004 	movi	r2,-128
 5080b0c:	1884703a 	and	r2,r3,r2
 5080b10:	e0bffd0d 	sth	r2,-12(fp)
    control += l_vol & 0x7F;
 5080b14:	e0bffe0b 	ldhu	r2,-8(fp)
 5080b18:	10801fcc 	andi	r2,r2,127
 5080b1c:	1007883a 	mov	r3,r2
 5080b20:	e0bffd0b 	ldhu	r2,-12(fp)
 5080b24:	1885883a 	add	r2,r3,r2
 5080b28:	e0bffd0d 	sth	r2,-12(fp)
    bSuccess = aduio_RegWrite(2, control);
 5080b2c:	e0bffd0b 	ldhu	r2,-12(fp)
 5080b30:	01000084 	movi	r4,2
 5080b34:	100b883a 	mov	r5,r2
 5080b38:	5080cfc0 	call	5080cfc <aduio_RegWrite>
 5080b3c:	e0bffc15 	stw	r2,-16(fp)
    
    if (bSuccess){
 5080b40:	e0bffc17 	ldw	r2,-16(fp)
 5080b44:	10001326 	beq	r2,zero,5080b94 <AUDIO_SetLineOutVol+0xc0>
        // right
        control = reg_file[3];
 5080b48:	00814274 	movhi	r2,1289
 5080b4c:	108a4404 	addi	r2,r2,10512
 5080b50:	1080018b 	ldhu	r2,6(r2)
 5080b54:	e0bffd0d 	sth	r2,-12(fp)
        control &= 0xFF80;
 5080b58:	e0fffd0b 	ldhu	r3,-12(fp)
 5080b5c:	00bfe004 	movi	r2,-128
 5080b60:	1884703a 	and	r2,r3,r2
 5080b64:	e0bffd0d 	sth	r2,-12(fp)
        control += r_vol & 0x7F;
 5080b68:	e0bfff0b 	ldhu	r2,-4(fp)
 5080b6c:	10801fcc 	andi	r2,r2,127
 5080b70:	1007883a 	mov	r3,r2
 5080b74:	e0bffd0b 	ldhu	r2,-12(fp)
 5080b78:	1885883a 	add	r2,r3,r2
 5080b7c:	e0bffd0d 	sth	r2,-12(fp)
        bSuccess = aduio_RegWrite(3, control);        
 5080b80:	e0bffd0b 	ldhu	r2,-12(fp)
 5080b84:	010000c4 	movi	r4,3
 5080b88:	100b883a 	mov	r5,r2
 5080b8c:	5080cfc0 	call	5080cfc <aduio_RegWrite>
 5080b90:	e0bffc15 	stw	r2,-16(fp)
    }    
    
    AUDIO_DEBUG(("[AUDIO] set Line-Out vol(%d,%d) %s\r\n", l_vol, r_vol, bSuccess?"success":"fail"));
 5080b94:	e17ffe0b 	ldhu	r5,-8(fp)
 5080b98:	e0ffff0b 	ldhu	r3,-4(fp)
 5080b9c:	e0bffc17 	ldw	r2,-16(fp)
 5080ba0:	10000326 	beq	r2,zero,5080bb0 <AUDIO_SetLineOutVol+0xdc>
 5080ba4:	00814274 	movhi	r2,1289
 5080ba8:	10b99804 	addi	r2,r2,-6560
 5080bac:	00000206 	br	5080bb8 <AUDIO_SetLineOutVol+0xe4>
 5080bb0:	00814274 	movhi	r2,1289
 5080bb4:	10b99a04 	addi	r2,r2,-6552
 5080bb8:	01014274 	movhi	r4,1289
 5080bbc:	2139ab04 	addi	r4,r4,-6484
 5080bc0:	180d883a 	mov	r6,r3
 5080bc4:	100f883a 	mov	r7,r2
 5080bc8:	5081a480 	call	5081a48 <myprintf>
    
    return bSuccess;
 5080bcc:	e0bffc17 	ldw	r2,-16(fp)
}
 5080bd0:	e037883a 	mov	sp,fp
 5080bd4:	dfc00117 	ldw	ra,4(sp)
 5080bd8:	df000017 	ldw	fp,0(sp)
 5080bdc:	dec00204 	addi	sp,sp,8
 5080be0:	f800283a 	ret

05080be4 <AUDIO_EnableByPass>:


bool AUDIO_EnableByPass(bool bEnable){
 5080be4:	defffb04 	addi	sp,sp,-20
 5080be8:	dfc00415 	stw	ra,16(sp)
 5080bec:	df000315 	stw	fp,12(sp)
 5080bf0:	df000304 	addi	fp,sp,12
 5080bf4:	e13fff15 	stw	r4,-4(fp)
    bool bSuccess;
    alt_u16 control;
    alt_u16 mask;
    control = reg_file[4];
 5080bf8:	00814274 	movhi	r2,1289
 5080bfc:	108a4404 	addi	r2,r2,10512
 5080c00:	1080020b 	ldhu	r2,8(r2)
 5080c04:	e0bffd0d 	sth	r2,-12(fp)
    mask = 0x01 << 3;
 5080c08:	00800204 	movi	r2,8
 5080c0c:	e0bffd8d 	sth	r2,-10(fp)
    if (bEnable)
 5080c10:	e0bfff17 	ldw	r2,-4(fp)
 5080c14:	10000526 	beq	r2,zero,5080c2c <AUDIO_EnableByPass+0x48>
        control |= mask;
 5080c18:	e0fffd0b 	ldhu	r3,-12(fp)
 5080c1c:	e0bffd8b 	ldhu	r2,-10(fp)
 5080c20:	1884b03a 	or	r2,r3,r2
 5080c24:	e0bffd0d 	sth	r2,-12(fp)
 5080c28:	00000606 	br	5080c44 <AUDIO_EnableByPass+0x60>
    else        
        control &= ~mask;
 5080c2c:	e0bffd8b 	ldhu	r2,-10(fp)
 5080c30:	0084303a 	nor	r2,zero,r2
 5080c34:	1007883a 	mov	r3,r2
 5080c38:	e0bffd0b 	ldhu	r2,-12(fp)
 5080c3c:	1884703a 	and	r2,r3,r2
 5080c40:	e0bffd0d 	sth	r2,-12(fp)
    bSuccess = aduio_RegWrite(4, control); 
 5080c44:	e0bffd0b 	ldhu	r2,-12(fp)
 5080c48:	01000104 	movi	r4,4
 5080c4c:	100b883a 	mov	r5,r2
 5080c50:	5080cfc0 	call	5080cfc <aduio_RegWrite>
 5080c54:	e0bffe15 	stw	r2,-8(fp)
    return bSuccess;  	
 5080c58:	e0bffe17 	ldw	r2,-8(fp)
}
 5080c5c:	e037883a 	mov	sp,fp
 5080c60:	dfc00117 	ldw	ra,4(sp)
 5080c64:	df000017 	ldw	fp,0(sp)
 5080c68:	dec00204 	addi	sp,sp,8
 5080c6c:	f800283a 	ret

05080c70 <AUDIO_EnableSiteTone>:

bool AUDIO_EnableSiteTone(bool bEnable){
 5080c70:	defffb04 	addi	sp,sp,-20
 5080c74:	dfc00415 	stw	ra,16(sp)
 5080c78:	df000315 	stw	fp,12(sp)
 5080c7c:	df000304 	addi	fp,sp,12
 5080c80:	e13fff15 	stw	r4,-4(fp)
    bool bSuccess;
    alt_u16 control;
    alt_u16 mask;
    control = reg_file[4];
 5080c84:	00814274 	movhi	r2,1289
 5080c88:	108a4404 	addi	r2,r2,10512
 5080c8c:	1080020b 	ldhu	r2,8(r2)
 5080c90:	e0bffd0d 	sth	r2,-12(fp)
    mask = 0x01 << 5;
 5080c94:	00800804 	movi	r2,32
 5080c98:	e0bffd8d 	sth	r2,-10(fp)
    if (bEnable)
 5080c9c:	e0bfff17 	ldw	r2,-4(fp)
 5080ca0:	10000526 	beq	r2,zero,5080cb8 <AUDIO_EnableSiteTone+0x48>
        control |= mask;
 5080ca4:	e0fffd0b 	ldhu	r3,-12(fp)
 5080ca8:	e0bffd8b 	ldhu	r2,-10(fp)
 5080cac:	1884b03a 	or	r2,r3,r2
 5080cb0:	e0bffd0d 	sth	r2,-12(fp)
 5080cb4:	00000606 	br	5080cd0 <AUDIO_EnableSiteTone+0x60>
    else        
        control &= ~mask;
 5080cb8:	e0bffd8b 	ldhu	r2,-10(fp)
 5080cbc:	0084303a 	nor	r2,zero,r2
 5080cc0:	1007883a 	mov	r3,r2
 5080cc4:	e0bffd0b 	ldhu	r2,-12(fp)
 5080cc8:	1884703a 	and	r2,r3,r2
 5080ccc:	e0bffd0d 	sth	r2,-12(fp)
    bSuccess = aduio_RegWrite(4, control); 
 5080cd0:	e0bffd0b 	ldhu	r2,-12(fp)
 5080cd4:	01000104 	movi	r4,4
 5080cd8:	100b883a 	mov	r5,r2
 5080cdc:	5080cfc0 	call	5080cfc <aduio_RegWrite>
 5080ce0:	e0bffe15 	stw	r2,-8(fp)
    return bSuccess;        
 5080ce4:	e0bffe17 	ldw	r2,-8(fp)
}
 5080ce8:	e037883a 	mov	sp,fp
 5080cec:	dfc00117 	ldw	ra,4(sp)
 5080cf0:	df000017 	ldw	fp,0(sp)
 5080cf4:	dec00204 	addi	sp,sp,8
 5080cf8:	f800283a 	ret

05080cfc <aduio_RegWrite>:

/////////////////////////////////////////////////////////////////////////
///////////// Interla function body ////////////////////////////////////
/////////////////////////////////////////////////////////////////////////

bool aduio_RegWrite(alt_u8 reg_index, alt_u16 data16){
 5080cfc:	defff904 	addi	sp,sp,-28
 5080d00:	dfc00615 	stw	ra,24(sp)
 5080d04:	df000515 	stw	fp,20(sp)
 5080d08:	df000504 	addi	fp,sp,20
 5080d0c:	2007883a 	mov	r3,r4
 5080d10:	2805883a 	mov	r2,r5
 5080d14:	e0fffe05 	stb	r3,-8(fp)
 5080d18:	e0bfff0d 	sth	r2,-4(fp)
    bool bSuccess;
    alt_u8 data, control;
    if (reg_index <= 10)
 5080d1c:	e0bffe03 	ldbu	r2,-8(fp)
 5080d20:	108002e8 	cmpgeui	r2,r2,11
 5080d24:	1000071e 	bne	r2,zero,5080d44 <aduio_RegWrite+0x48>
        reg_file[reg_index] = data16;
 5080d28:	e0bffe03 	ldbu	r2,-8(fp)
 5080d2c:	00c14274 	movhi	r3,1289
 5080d30:	18ca4404 	addi	r3,r3,10512
 5080d34:	1085883a 	add	r2,r2,r2
 5080d38:	1885883a 	add	r2,r3,r2
 5080d3c:	e0ffff0b 	ldhu	r3,-4(fp)
 5080d40:	10c0000d 	sth	r3,0(r2)
    data = data16 & 0xFF;
 5080d44:	e0bfff0b 	ldhu	r2,-4(fp)
 5080d48:	e0bffc05 	stb	r2,-16(fp)
    control = (reg_index << 1) & 0xFE;
 5080d4c:	e0bffe03 	ldbu	r2,-8(fp)
 5080d50:	1085883a 	add	r2,r2,r2
 5080d54:	e0bffc45 	stb	r2,-15(fp)
    control |= ((data16 >> 8) & 0x01);
 5080d58:	e0bfff0b 	ldhu	r2,-4(fp)
 5080d5c:	1004d23a 	srli	r2,r2,8
 5080d60:	1080004c 	andi	r2,r2,1
 5080d64:	1007883a 	mov	r3,r2
 5080d68:	e0bffc43 	ldbu	r2,-15(fp)
 5080d6c:	1884b03a 	or	r2,r3,r2
 5080d70:	e0bffc45 	stb	r2,-15(fp)
    AUDIO_DEBUG(("[AUDIO] set audio reg[%02d] = %04Xh\r\n", reg_index, data16));
 5080d74:	e0fffe03 	ldbu	r3,-8(fp)
 5080d78:	e0bfff0b 	ldhu	r2,-4(fp)
 5080d7c:	01014274 	movhi	r4,1289
 5080d80:	2139b504 	addi	r4,r4,-6444
 5080d84:	180b883a 	mov	r5,r3
 5080d88:	100d883a 	mov	r6,r2
 5080d8c:	5081a480 	call	5081a48 <myprintf>
    bSuccess = I2C_Write(I2C_SCL_BASE, I2C_SDA_BASE, I2C_AUDIO_ADDR, control, data);
 5080d90:	e0bffc43 	ldbu	r2,-15(fp)
 5080d94:	e0fffc03 	ldbu	r3,-16(fp)
 5080d98:	d8c00015 	stw	r3,0(sp)
 5080d9c:	01010034 	movhi	r4,1024
 5080da0:	21000c04 	addi	r4,r4,48
 5080da4:	01410034 	movhi	r5,1024
 5080da8:	29400804 	addi	r5,r5,32
 5080dac:	01800d04 	movi	r6,52
 5080db0:	100f883a 	mov	r7,r2
 5080db4:	5080f340 	call	5080f34 <I2C_Write>
 5080db8:	e0bffd15 	stw	r2,-12(fp)
    if (!bSuccess) 
 5080dbc:	e0bffd17 	ldw	r2,-12(fp)
 5080dc0:	1000031e 	bne	r2,zero,5080dd0 <aduio_RegWrite+0xd4>
        AUDIO_DEBUG(("[AUDIO] write reg fail!!!!\r\n"));
 5080dc4:	01014274 	movhi	r4,1289
 5080dc8:	2139bf04 	addi	r4,r4,-6404
 5080dcc:	5081a480 	call	5081a48 <myprintf>
    usleep(50*1000);  // wait audio chip read        
 5080dd0:	0130d414 	movui	r4,50000
 5080dd4:	508c51c0 	call	508c51c <usleep>
    return bSuccess;        
 5080dd8:	e0bffd17 	ldw	r2,-12(fp)
}
 5080ddc:	e037883a 	mov	sp,fp
 5080de0:	dfc00117 	ldw	ra,4(sp)
 5080de4:	df000017 	ldw	fp,0(sp)
 5080de8:	dec00204 	addi	sp,sp,8
 5080dec:	f800283a 	ret

05080df0 <AUDIO_DacFifoNotFull>:

/////////////////////////////////////////////////////////////////////////
///////////// Audio Play & Recor ////////////////////////////////////////
/////////////////////////////////////////////////////////////////////////
// check whether the dac-fifo is full.
bool AUDIO_DacFifoNotFull(void){
 5080df0:	defffe04 	addi	sp,sp,-8
 5080df4:	df000115 	stw	fp,4(sp)
 5080df8:	df000104 	addi	fp,sp,4
    bool bReady;
    bReady = AUDIO_DAC_FULL()?FALSE:TRUE;
 5080dfc:	00814434 	movhi	r2,1296
 5080e00:	10840d04 	addi	r2,r2,4148
 5080e04:	10800037 	ldwio	r2,0(r2)
 5080e08:	1080004c 	andi	r2,r2,1
 5080e0c:	1005003a 	cmpeq	r2,r2,zero
 5080e10:	10803fcc 	andi	r2,r2,255
 5080e14:	e0bfff15 	stw	r2,-4(fp)
    return bReady;
 5080e18:	e0bfff17 	ldw	r2,-4(fp)
}
 5080e1c:	e037883a 	mov	sp,fp
 5080e20:	df000017 	ldw	fp,0(sp)
 5080e24:	dec00104 	addi	sp,sp,4
 5080e28:	f800283a 	ret

05080e2c <AUDIO_DacFifoSetData>:

// call AUDIO_PlayIsReady to make sure the fifo is not full before call this function 
void AUDIO_DacFifoSetData(short ch_left, short ch_right){
 5080e2c:	defffd04 	addi	sp,sp,-12
 5080e30:	df000215 	stw	fp,8(sp)
 5080e34:	df000204 	addi	fp,sp,8
 5080e38:	2007883a 	mov	r3,r4
 5080e3c:	2805883a 	mov	r2,r5
 5080e40:	e0fffe0d 	sth	r3,-8(fp)
 5080e44:	e0bfff0d 	sth	r2,-4(fp)
    AUDIO_DAC_WRITE_L(ch_left);
 5080e48:	e0fffe0f 	ldh	r3,-8(fp)
 5080e4c:	00814434 	movhi	r2,1296
 5080e50:	10840804 	addi	r2,r2,4128
 5080e54:	10c00035 	stwio	r3,0(r2)
    AUDIO_DAC_WRITE_R(ch_right);
 5080e58:	e0ffff0f 	ldh	r3,-4(fp)
 5080e5c:	00814434 	movhi	r2,1296
 5080e60:	10840904 	addi	r2,r2,4132
 5080e64:	10c00035 	stwio	r3,0(r2)
}
 5080e68:	e037883a 	mov	sp,fp
 5080e6c:	df000017 	ldw	fp,0(sp)
 5080e70:	dec00104 	addi	sp,sp,4
 5080e74:	f800283a 	ret

05080e78 <AUDIO_AdcFifoNotEmpty>:

// wheck whether there is data available in adc-fifo
bool AUDIO_AdcFifoNotEmpty(void){
 5080e78:	defffe04 	addi	sp,sp,-8
 5080e7c:	df000115 	stw	fp,4(sp)
 5080e80:	df000104 	addi	fp,sp,4
    bool bReady;
    bReady = AUDIO_ADC_EMPTY()?FALSE:TRUE;
 5080e84:	00814434 	movhi	r2,1296
 5080e88:	10840d04 	addi	r2,r2,4148
 5080e8c:	10800037 	ldwio	r2,0(r2)
 5080e90:	1080008c 	andi	r2,r2,2
 5080e94:	1005003a 	cmpeq	r2,r2,zero
 5080e98:	10803fcc 	andi	r2,r2,255
 5080e9c:	e0bfff15 	stw	r2,-4(fp)
    return bReady;
 5080ea0:	e0bfff17 	ldw	r2,-4(fp)
}
 5080ea4:	e037883a 	mov	sp,fp
 5080ea8:	df000017 	ldw	fp,0(sp)
 5080eac:	dec00104 	addi	sp,sp,4
 5080eb0:	f800283a 	ret

05080eb4 <AUDIO_AdcFifoGetData>:


// make sure the data is available before call this fucntion
void AUDIO_AdcFifoGetData(short *pch_left, short *pch_right){
 5080eb4:	defffd04 	addi	sp,sp,-12
 5080eb8:	df000215 	stw	fp,8(sp)
 5080ebc:	df000204 	addi	fp,sp,8
 5080ec0:	e13ffe15 	stw	r4,-8(fp)
 5080ec4:	e17fff15 	stw	r5,-4(fp)
    *pch_left = AUDIO_ADC_READ_L();
 5080ec8:	00814434 	movhi	r2,1296
 5080ecc:	10840a04 	addi	r2,r2,4136
 5080ed0:	10800037 	ldwio	r2,0(r2)
 5080ed4:	1007883a 	mov	r3,r2
 5080ed8:	e0bffe17 	ldw	r2,-8(fp)
 5080edc:	10c0000d 	sth	r3,0(r2)
    *pch_right = AUDIO_ADC_READ_R();
 5080ee0:	00814434 	movhi	r2,1296
 5080ee4:	10840b04 	addi	r2,r2,4140
 5080ee8:	10800037 	ldwio	r2,0(r2)
 5080eec:	1007883a 	mov	r3,r2
 5080ef0:	e0bfff17 	ldw	r2,-4(fp)
 5080ef4:	10c0000d 	sth	r3,0(r2)
    
}
 5080ef8:	e037883a 	mov	sp,fp
 5080efc:	df000017 	ldw	fp,0(sp)
 5080f00:	dec00104 	addi	sp,sp,4
 5080f04:	f800283a 	ret

05080f08 <AUDIO_FifoClear>:

void AUDIO_FifoClear(void){
 5080f08:	deffff04 	addi	sp,sp,-4
 5080f0c:	df000015 	stw	fp,0(sp)
 5080f10:	d839883a 	mov	fp,sp
    AUDIO_FIFO_CLEAR();
 5080f14:	00c00044 	movi	r3,1
 5080f18:	00814434 	movhi	r2,1296
 5080f1c:	10840c04 	addi	r2,r2,4144
 5080f20:	10c00035 	stwio	r3,0(r2)
}
 5080f24:	e037883a 	mov	sp,fp
 5080f28:	df000017 	ldw	fp,0(sp)
 5080f2c:	dec00104 	addi	sp,sp,4
 5080f30:	f800283a 	ret

05080f34 <I2C_Write>:
bool i2c_write(alt_u32 clk_base, alt_u32 data_base, alt_u8 Data);
void i2c_read(alt_u32 clk_base, alt_u32 data_base, alt_u8 *pData, bool bAck);



bool I2C_Write(alt_u32 clk_base, alt_u32 data_base, alt_8 DeviceAddr, alt_u8 ControlAddr, alt_u8 ControlData){
 5080f34:	defff804 	addi	sp,sp,-32
 5080f38:	dfc00715 	stw	ra,28(sp)
 5080f3c:	df000615 	stw	fp,24(sp)
 5080f40:	df000604 	addi	fp,sp,24
 5080f44:	e13ffb15 	stw	r4,-20(fp)
 5080f48:	e17ffc15 	stw	r5,-16(fp)
 5080f4c:	3007883a 	mov	r3,r6
 5080f50:	3805883a 	mov	r2,r7
 5080f54:	e1000217 	ldw	r4,8(fp)
 5080f58:	e0fffd05 	stb	r3,-12(fp)
 5080f5c:	e0bffe05 	stb	r2,-8(fp)
 5080f60:	e13fff05 	stb	r4,-4(fp)
    bool bSuccess = TRUE;
 5080f64:	00800044 	movi	r2,1
 5080f68:	e0bffa15 	stw	r2,-24(fp)
    //alt_u8 DeviceAddr;
    
    // device id
    //DeviceAddr = HMB_E2_I2C_ID;

    i2c_start(clk_base, data_base);
 5080f6c:	e13ffb17 	ldw	r4,-20(fp)
 5080f70:	e17ffc17 	ldw	r5,-16(fp)
 5080f74:	50812d00 	call	50812d0 <i2c_start>
    if (!i2c_write(clk_base, data_base, DeviceAddr)){  // send ID
 5080f78:	e0bffd03 	ldbu	r2,-12(fp)
 5080f7c:	10803fcc 	andi	r2,r2,255
 5080f80:	e13ffb17 	ldw	r4,-20(fp)
 5080f84:	e17ffc17 	ldw	r5,-16(fp)
 5080f88:	100d883a 	mov	r6,r2
 5080f8c:	50813c40 	call	50813c4 <i2c_write>
 5080f90:	1000041e 	bne	r2,zero,5080fa4 <I2C_Write+0x70>
        bSuccess = FALSE;
 5080f94:	e03ffa15 	stw	zero,-24(fp)
        I2C_DEBUG(("I2C HMB_E2 Fail: Address NACK!\n"));
 5080f98:	01014274 	movhi	r4,1289
 5080f9c:	2139c704 	addi	r4,r4,-6372
 5080fa0:	5081a480 	call	5081a48 <myprintf>
    }
    if (bSuccess && !i2c_write(clk_base, data_base, ControlAddr)){ // send sub-address
 5080fa4:	e0bffa17 	ldw	r2,-24(fp)
 5080fa8:	10000a26 	beq	r2,zero,5080fd4 <I2C_Write+0xa0>
 5080fac:	e0bffe03 	ldbu	r2,-8(fp)
 5080fb0:	e13ffb17 	ldw	r4,-20(fp)
 5080fb4:	e17ffc17 	ldw	r5,-16(fp)
 5080fb8:	100d883a 	mov	r6,r2
 5080fbc:	50813c40 	call	50813c4 <i2c_write>
 5080fc0:	1000041e 	bne	r2,zero,5080fd4 <I2C_Write+0xa0>
        bSuccess = FALSE;
 5080fc4:	e03ffa15 	stw	zero,-24(fp)
        I2C_DEBUG(("I2C HMB_E2 Fail: SubAddress NACK!\n"));
 5080fc8:	01014274 	movhi	r4,1289
 5080fcc:	2139cf04 	addi	r4,r4,-6340
 5080fd0:	5081a480 	call	5081a48 <myprintf>
    }            
    if (bSuccess && !i2c_write(clk_base, data_base, ControlData)){  
 5080fd4:	e0bffa17 	ldw	r2,-24(fp)
 5080fd8:	10000a26 	beq	r2,zero,5081004 <I2C_Write+0xd0>
 5080fdc:	e0bfff03 	ldbu	r2,-4(fp)
 5080fe0:	e13ffb17 	ldw	r4,-20(fp)
 5080fe4:	e17ffc17 	ldw	r5,-16(fp)
 5080fe8:	100d883a 	mov	r6,r2
 5080fec:	50813c40 	call	50813c4 <i2c_write>
 5080ff0:	1000041e 	bne	r2,zero,5081004 <I2C_Write+0xd0>
        bSuccess = FALSE;
 5080ff4:	e03ffa15 	stw	zero,-24(fp)
        I2C_DEBUG(("I2C HMB_E2 Fail: write NACK!\n"));
 5080ff8:	01014274 	movhi	r4,1289
 5080ffc:	2139d804 	addi	r4,r4,-6304
 5081000:	5081a480 	call	5081a48 <myprintf>
    }
    i2c_stop(clk_base, data_base);
 5081004:	e13ffb17 	ldw	r4,-20(fp)
 5081008:	e17ffc17 	ldw	r5,-16(fp)
 508100c:	50813540 	call	5081354 <i2c_stop>
    
    usleep(7*1000); // delay to wait EE2 ready (at least 5 ms delay is required)
 5081010:	0106d604 	movi	r4,7000
 5081014:	508c51c0 	call	508c51c <usleep>
    
    return bSuccess;
 5081018:	e0bffa17 	ldw	r2,-24(fp)

    
}
 508101c:	e037883a 	mov	sp,fp
 5081020:	dfc00117 	ldw	ra,4(sp)
 5081024:	df000017 	ldw	fp,0(sp)
 5081028:	dec00204 	addi	sp,sp,8
 508102c:	f800283a 	ret

05081030 <I2C_Read>:

bool I2C_Read(alt_u32 clk_base, alt_u32 data_base, alt_8 DeviceAddr, alt_u8 ControlAddr, alt_u8 *pControlData){
 5081030:	defff904 	addi	sp,sp,-28
 5081034:	dfc00615 	stw	ra,24(sp)
 5081038:	df000515 	stw	fp,20(sp)
 508103c:	df000504 	addi	fp,sp,20
 5081040:	e13ffc15 	stw	r4,-16(fp)
 5081044:	e17ffd15 	stw	r5,-12(fp)
 5081048:	3007883a 	mov	r3,r6
 508104c:	3805883a 	mov	r2,r7
 5081050:	e0fffe05 	stb	r3,-8(fp)
 5081054:	e0bfff05 	stb	r2,-4(fp)
    bool bSuccess = TRUE;
 5081058:	00800044 	movi	r2,1
 508105c:	e0bffb15 	stw	r2,-20(fp)
    //alt_u8 DeviceAddr;
   
    // device id
    //DeviceAddr = HMB_E2_I2C_ID;

    i2c_start(clk_base, data_base);
 5081060:	e13ffc17 	ldw	r4,-16(fp)
 5081064:	e17ffd17 	ldw	r5,-12(fp)
 5081068:	50812d00 	call	50812d0 <i2c_start>
    if (!i2c_write(clk_base, data_base, DeviceAddr)){  // send ID
 508106c:	e0bffe03 	ldbu	r2,-8(fp)
 5081070:	10803fcc 	andi	r2,r2,255
 5081074:	e13ffc17 	ldw	r4,-16(fp)
 5081078:	e17ffd17 	ldw	r5,-12(fp)
 508107c:	100d883a 	mov	r6,r2
 5081080:	50813c40 	call	50813c4 <i2c_write>
 5081084:	1000041e 	bne	r2,zero,5081098 <I2C_Read+0x68>
        bSuccess = FALSE;
 5081088:	e03ffb15 	stw	zero,-20(fp)
        I2C_DEBUG(("I2C HMB_E2 Fail: Address NACK!\n"));
 508108c:	01014274 	movhi	r4,1289
 5081090:	2139c704 	addi	r4,r4,-6372
 5081094:	5081a480 	call	5081a48 <myprintf>
    }
    if (bSuccess && !i2c_write(clk_base, data_base, ControlAddr)){ // send sub-address
 5081098:	e0bffb17 	ldw	r2,-20(fp)
 508109c:	10000a26 	beq	r2,zero,50810c8 <I2C_Read+0x98>
 50810a0:	e0bfff03 	ldbu	r2,-4(fp)
 50810a4:	e13ffc17 	ldw	r4,-16(fp)
 50810a8:	e17ffd17 	ldw	r5,-12(fp)
 50810ac:	100d883a 	mov	r6,r2
 50810b0:	50813c40 	call	50813c4 <i2c_write>
 50810b4:	1000041e 	bne	r2,zero,50810c8 <I2C_Read+0x98>
        bSuccess = FALSE;
 50810b8:	e03ffb15 	stw	zero,-20(fp)
        I2C_DEBUG(("I2C HMB_E2 Fail: SubAddress NACK!\n"));
 50810bc:	01014274 	movhi	r4,1289
 50810c0:	2139cf04 	addi	r4,r4,-6340
 50810c4:	5081a480 	call	5081a48 <myprintf>
    }            
    i2c_start(clk_base, data_base);  // restart
 50810c8:	e13ffc17 	ldw	r4,-16(fp)
 50810cc:	e17ffd17 	ldw	r5,-12(fp)
 50810d0:	50812d00 	call	50812d0 <i2c_start>
    DeviceAddr |= 1; // Read
 50810d4:	e0bffe03 	ldbu	r2,-8(fp)
 50810d8:	10800054 	ori	r2,r2,1
 50810dc:	e0bffe05 	stb	r2,-8(fp)
    if (bSuccess && !i2c_write(clk_base, data_base, DeviceAddr)){  // send id
 50810e0:	e0bffb17 	ldw	r2,-20(fp)
 50810e4:	10000b26 	beq	r2,zero,5081114 <I2C_Read+0xe4>
 50810e8:	e0bffe03 	ldbu	r2,-8(fp)
 50810ec:	10803fcc 	andi	r2,r2,255
 50810f0:	e13ffc17 	ldw	r4,-16(fp)
 50810f4:	e17ffd17 	ldw	r5,-12(fp)
 50810f8:	100d883a 	mov	r6,r2
 50810fc:	50813c40 	call	50813c4 <i2c_write>
 5081100:	1000041e 	bne	r2,zero,5081114 <I2C_Read+0xe4>
        bSuccess = FALSE;
 5081104:	e03ffb15 	stw	zero,-20(fp)
        I2C_DEBUG(("I2C HMB_E2 Fail: Address+1 NACK!\n"));
 5081108:	01014274 	movhi	r4,1289
 508110c:	2139e004 	addi	r4,r4,-6272
 5081110:	5081a480 	call	5081a48 <myprintf>
    }
    
    if (bSuccess){
 5081114:	e0bffb17 	ldw	r2,-20(fp)
 5081118:	10000526 	beq	r2,zero,5081130 <I2C_Read+0x100>
        i2c_read(clk_base, data_base, pControlData, FALSE);  // read
 508111c:	e13ffc17 	ldw	r4,-16(fp)
 5081120:	e17ffd17 	ldw	r5,-12(fp)
 5081124:	e1800217 	ldw	r6,8(fp)
 5081128:	000f883a 	mov	r7,zero
 508112c:	50814f00 	call	50814f0 <i2c_read>
    }        
    i2c_stop(clk_base, data_base);
 5081130:	e13ffc17 	ldw	r4,-16(fp)
 5081134:	e17ffd17 	ldw	r5,-12(fp)
 5081138:	50813540 	call	5081354 <i2c_stop>
    
    return bSuccess;
 508113c:	e0bffb17 	ldw	r2,-20(fp)
}
 5081140:	e037883a 	mov	sp,fp
 5081144:	dfc00117 	ldw	ra,4(sp)
 5081148:	df000017 	ldw	fp,0(sp)
 508114c:	dec00204 	addi	sp,sp,8
 5081150:	f800283a 	ret

05081154 <I2C_MultipleRead>:

bool I2C_MultipleRead(alt_u32 clk_base, alt_u32 data_base, alt_8 DeviceAddr, alt_u8 szData[], alt_u16 len){
 5081154:	defff604 	addi	sp,sp,-40
 5081158:	dfc00915 	stw	ra,36(sp)
 508115c:	df000815 	stw	fp,32(sp)
 5081160:	df000804 	addi	fp,sp,32
 5081164:	e13ffb15 	stw	r4,-20(fp)
 5081168:	e17ffc15 	stw	r5,-16(fp)
 508116c:	3005883a 	mov	r2,r6
 5081170:	e1fffe15 	stw	r7,-8(fp)
 5081174:	e0c00217 	ldw	r3,8(fp)
 5081178:	e0bffd05 	stb	r2,-12(fp)
 508117c:	e0ffff0d 	sth	r3,-4(fp)
    int i;
    bool bSuccess = TRUE;
 5081180:	00800044 	movi	r2,1
 5081184:	e0bff915 	stw	r2,-28(fp)
    //alt_u8 DeviceAddr, 
    alt_u8 ControlAddr = 0;
 5081188:	e03ffa05 	stb	zero,-24(fp)
    
   
    // device id
    //DeviceAddr = HMB_E2_I2C_ID;

    i2c_start(clk_base, data_base);
 508118c:	e13ffb17 	ldw	r4,-20(fp)
 5081190:	e17ffc17 	ldw	r5,-16(fp)
 5081194:	50812d00 	call	50812d0 <i2c_start>
    if (!i2c_write(clk_base, data_base, DeviceAddr)){  // send ID
 5081198:	e0bffd03 	ldbu	r2,-12(fp)
 508119c:	10803fcc 	andi	r2,r2,255
 50811a0:	e13ffb17 	ldw	r4,-20(fp)
 50811a4:	e17ffc17 	ldw	r5,-16(fp)
 50811a8:	100d883a 	mov	r6,r2
 50811ac:	50813c40 	call	50813c4 <i2c_write>
 50811b0:	1000041e 	bne	r2,zero,50811c4 <I2C_MultipleRead+0x70>
        bSuccess = FALSE;
 50811b4:	e03ff915 	stw	zero,-28(fp)
        I2C_DEBUG(("I2C HMB_E2 Fail: Address NACK!\n"));
 50811b8:	01014274 	movhi	r4,1289
 50811bc:	2139c704 	addi	r4,r4,-6372
 50811c0:	5081a480 	call	5081a48 <myprintf>
    }
    if (bSuccess && !i2c_write(clk_base, data_base, ControlAddr)){ // send sub-address
 50811c4:	e0bff917 	ldw	r2,-28(fp)
 50811c8:	10000a26 	beq	r2,zero,50811f4 <I2C_MultipleRead+0xa0>
 50811cc:	e0bffa03 	ldbu	r2,-24(fp)
 50811d0:	e13ffb17 	ldw	r4,-20(fp)
 50811d4:	e17ffc17 	ldw	r5,-16(fp)
 50811d8:	100d883a 	mov	r6,r2
 50811dc:	50813c40 	call	50813c4 <i2c_write>
 50811e0:	1000041e 	bne	r2,zero,50811f4 <I2C_MultipleRead+0xa0>
        bSuccess = FALSE;
 50811e4:	e03ff915 	stw	zero,-28(fp)
        I2C_DEBUG(("I2C HMB_E2 Fail: SubAddress NACK!\n"));
 50811e8:	01014274 	movhi	r4,1289
 50811ec:	2139cf04 	addi	r4,r4,-6340
 50811f0:	5081a480 	call	5081a48 <myprintf>
    }    
    if (bSuccess)        
 50811f4:	e0bff917 	ldw	r2,-28(fp)
 50811f8:	10000326 	beq	r2,zero,5081208 <I2C_MultipleRead+0xb4>
        i2c_start(clk_base, data_base);  // restart
 50811fc:	e13ffb17 	ldw	r4,-20(fp)
 5081200:	e17ffc17 	ldw	r5,-16(fp)
 5081204:	50812d00 	call	50812d0 <i2c_start>
    DeviceAddr |= 1; // Read
 5081208:	e0bffd03 	ldbu	r2,-12(fp)
 508120c:	10800054 	ori	r2,r2,1
 5081210:	e0bffd05 	stb	r2,-12(fp)
    if (bSuccess && !i2c_write(clk_base, data_base, DeviceAddr)){  // send id
 5081214:	e0bff917 	ldw	r2,-28(fp)
 5081218:	10000b26 	beq	r2,zero,5081248 <I2C_MultipleRead+0xf4>
 508121c:	e0bffd03 	ldbu	r2,-12(fp)
 5081220:	10803fcc 	andi	r2,r2,255
 5081224:	e13ffb17 	ldw	r4,-20(fp)
 5081228:	e17ffc17 	ldw	r5,-16(fp)
 508122c:	100d883a 	mov	r6,r2
 5081230:	50813c40 	call	50813c4 <i2c_write>
 5081234:	1000041e 	bne	r2,zero,5081248 <I2C_MultipleRead+0xf4>
        bSuccess = FALSE;
 5081238:	e03ff915 	stw	zero,-28(fp)
        I2C_DEBUG(("I2C HMB_E2 Fail: Address+1 NACK!\n"));
 508123c:	01014274 	movhi	r4,1289
 5081240:	2139e004 	addi	r4,r4,-6272
 5081244:	5081a480 	call	5081a48 <myprintf>
    }
    
    if (bSuccess){
 5081248:	e0bff917 	ldw	r2,-28(fp)
 508124c:	10001726 	beq	r2,zero,50812ac <I2C_MultipleRead+0x158>
        for(i=0;i<len && bSuccess;i++){
 5081250:	e03ff815 	stw	zero,-32(fp)
 5081254:	00001006 	br	5081298 <I2C_MultipleRead+0x144>
            i2c_read(clk_base, data_base, &szData[i], (i==(len-1))?FALSE:TRUE);  // read
 5081258:	e0bff817 	ldw	r2,-32(fp)
 508125c:	e0fffe17 	ldw	r3,-8(fp)
 5081260:	1887883a 	add	r3,r3,r2
 5081264:	e0bfff0b 	ldhu	r2,-4(fp)
 5081268:	113fffc4 	addi	r4,r2,-1
 508126c:	e0bff817 	ldw	r2,-32(fp)
 5081270:	2084c03a 	cmpne	r2,r4,r2
 5081274:	10803fcc 	andi	r2,r2,255
 5081278:	e13ffb17 	ldw	r4,-20(fp)
 508127c:	e17ffc17 	ldw	r5,-16(fp)
 5081280:	180d883a 	mov	r6,r3
 5081284:	100f883a 	mov	r7,r2
 5081288:	50814f00 	call	50814f0 <i2c_read>
        bSuccess = FALSE;
        I2C_DEBUG(("I2C HMB_E2 Fail: Address+1 NACK!\n"));
    }
    
    if (bSuccess){
        for(i=0;i<len && bSuccess;i++){
 508128c:	e0bff817 	ldw	r2,-32(fp)
 5081290:	10800044 	addi	r2,r2,1
 5081294:	e0bff815 	stw	r2,-32(fp)
 5081298:	e0bfff0b 	ldhu	r2,-4(fp)
 508129c:	e0fff817 	ldw	r3,-32(fp)
 50812a0:	1880020e 	bge	r3,r2,50812ac <I2C_MultipleRead+0x158>
 50812a4:	e0bff917 	ldw	r2,-28(fp)
 50812a8:	103feb1e 	bne	r2,zero,5081258 <I2C_MultipleRead+0x104>
            i2c_read(clk_base, data_base, &szData[i], (i==(len-1))?FALSE:TRUE);  // read
        }            
    }        
    i2c_stop(clk_base, data_base);
 50812ac:	e13ffb17 	ldw	r4,-20(fp)
 50812b0:	e17ffc17 	ldw	r5,-16(fp)
 50812b4:	50813540 	call	5081354 <i2c_stop>
    
    return bSuccess;    
 50812b8:	e0bff917 	ldw	r2,-28(fp)
    
}
 50812bc:	e037883a 	mov	sp,fp
 50812c0:	dfc00117 	ldw	ra,4(sp)
 50812c4:	df000017 	ldw	fp,0(sp)
 50812c8:	dec00204 	addi	sp,sp,8
 50812cc:	f800283a 	ret

050812d0 <i2c_start>:
///////////// Interncal function (i2cXXX) body //////////////////////////////////////////////
/////////////////////////////////////////////////////////////////////////////////////////////


//SDA 1->0 while SCL=1
void i2c_start(alt_u32 clk_base, alt_u32 data_base){
 50812d0:	defffc04 	addi	sp,sp,-16
 50812d4:	dfc00315 	stw	ra,12(sp)
 50812d8:	df000215 	stw	fp,8(sp)
 50812dc:	df000204 	addi	fp,sp,8
 50812e0:	e13ffe15 	stw	r4,-8(fp)
 50812e4:	e17fff15 	stw	r5,-4(fp)
    
    // make sure it is in normal state
    SDA_DIR_OUT(data_base);  // data output enabled
 50812e8:	e0bfff17 	ldw	r2,-4(fp)
 50812ec:	10800104 	addi	r2,r2,4
 50812f0:	00c00044 	movi	r3,1
 50812f4:	10c00035 	stwio	r3,0(r2)
    
    
    
    // start condition 
    SDA_HIGH(data_base); // data high
 50812f8:	e0bfff17 	ldw	r2,-4(fp)
 50812fc:	00c00044 	movi	r3,1
 5081300:	10c00035 	stwio	r3,0(r2)
    SCL_HIGH(clk_base);
 5081304:	e0bffe17 	ldw	r2,-8(fp)
 5081308:	00c00044 	movi	r3,1
 508130c:	10c00035 	stwio	r3,0(r2)
    SCL_DELAY;
 5081310:	01000044 	movi	r4,1
 5081314:	508c51c0 	call	508c51c <usleep>
     
    SDA_LOW(data_base); // data low
 5081318:	e0bfff17 	ldw	r2,-4(fp)
 508131c:	0007883a 	mov	r3,zero
 5081320:	10c00035 	stwio	r3,0(r2)
    SCL_DELAY; 
 5081324:	01000044 	movi	r4,1
 5081328:	508c51c0 	call	508c51c <usleep>
    SCL_LOW(clk_base); // clock low
 508132c:	e0bffe17 	ldw	r2,-8(fp)
 5081330:	0007883a 	mov	r3,zero
 5081334:	10c00035 	stwio	r3,0(r2)
    SCL_DELAY;
 5081338:	01000044 	movi	r4,1
 508133c:	508c51c0 	call	508c51c <usleep>
}
 5081340:	e037883a 	mov	sp,fp
 5081344:	dfc00117 	ldw	ra,4(sp)
 5081348:	df000017 	ldw	fp,0(sp)
 508134c:	dec00204 	addi	sp,sp,8
 5081350:	f800283a 	ret

05081354 <i2c_stop>:

// SDA 0->1 while SCL=1
void i2c_stop(alt_u32 clk_base, alt_u32 data_base){
 5081354:	defffc04 	addi	sp,sp,-16
 5081358:	dfc00315 	stw	ra,12(sp)
 508135c:	df000215 	stw	fp,8(sp)
 5081360:	df000204 	addi	fp,sp,8
 5081364:	e13ffe15 	stw	r4,-8(fp)
 5081368:	e17fff15 	stw	r5,-4(fp)
    // assume SCL = 0
    
    SDA_DIR_OUT(data_base);  // data output enabled
 508136c:	e0bfff17 	ldw	r2,-4(fp)
 5081370:	10800104 	addi	r2,r2,4
 5081374:	00c00044 	movi	r3,1
 5081378:	10c00035 	stwio	r3,0(r2)
    SDA_LOW(data_base); // Data Low
 508137c:	e0bfff17 	ldw	r2,-4(fp)
 5081380:	0007883a 	mov	r3,zero
 5081384:	10c00035 	stwio	r3,0(r2)
    //SCL_DELAY; 
    SCL_HIGH(clk_base);  // clock high
 5081388:	e0bffe17 	ldw	r2,-8(fp)
 508138c:	00c00044 	movi	r3,1
 5081390:	10c00035 	stwio	r3,0(r2)
    SCL_DELAY; // clock high long delay
 5081394:	01000044 	movi	r4,1
 5081398:	508c51c0 	call	508c51c <usleep>
    SDA_HIGH(data_base); // data high
 508139c:	e0bfff17 	ldw	r2,-4(fp)
 50813a0:	00c00044 	movi	r3,1
 50813a4:	10c00035 	stwio	r3,0(r2)
    SCL_DELAY; // data high delay
 50813a8:	01000044 	movi	r4,1
 50813ac:	508c51c0 	call	508c51c <usleep>
}
 50813b0:	e037883a 	mov	sp,fp
 50813b4:	dfc00117 	ldw	ra,4(sp)
 50813b8:	df000017 	ldw	fp,0(sp)
 50813bc:	dec00204 	addi	sp,sp,8
 50813c0:	f800283a 	ret

050813c4 <i2c_write>:

bool i2c_write(alt_u32 clk_base, alt_u32 data_base, alt_u8 Data){ // return true if device response ack
 50813c4:	defff804 	addi	sp,sp,-32
 50813c8:	dfc00715 	stw	ra,28(sp)
 50813cc:	df000615 	stw	fp,24(sp)
 50813d0:	df000604 	addi	fp,sp,24
 50813d4:	e13ffd15 	stw	r4,-12(fp)
 50813d8:	e17ffe15 	stw	r5,-8(fp)
 50813dc:	3005883a 	mov	r2,r6
 50813e0:	e0bfff05 	stb	r2,-4(fp)
    alt_u8 Mask = 0x80;
 50813e4:	00bfe004 	movi	r2,-128
 50813e8:	e0bffa05 	stb	r2,-24(fp)
    bool bAck;
    int i;
    
    // assume, SCL = 0
    
    SDA_DIR_OUT(data_base);  // data write mode
 50813ec:	e0bffe17 	ldw	r2,-8(fp)
 50813f0:	10800104 	addi	r2,r2,4
 50813f4:	00c00044 	movi	r3,1
 50813f8:	10c00035 	stwio	r3,0(r2)
    
    for(i=0;i<8;i++){
 50813fc:	e03ffb15 	stw	zero,-20(fp)
 5081400:	00001f06 	br	5081480 <i2c_write+0xbc>
        SCL_LOW(clk_base);  // new, make sure data change at clk low
 5081404:	e0bffd17 	ldw	r2,-12(fp)
 5081408:	0007883a 	mov	r3,zero
 508140c:	10c00035 	stwio	r3,0(r2)
        // output data on bus
        if (Data & Mask){ // there is a delay in this command
 5081410:	e0ffff03 	ldbu	r3,-4(fp)
 5081414:	e0bffa03 	ldbu	r2,-24(fp)
 5081418:	1884703a 	and	r2,r3,r2
 508141c:	10803fcc 	andi	r2,r2,255
 5081420:	10000426 	beq	r2,zero,5081434 <i2c_write+0x70>
            SDA_HIGH(data_base);
 5081424:	e0bffe17 	ldw	r2,-8(fp)
 5081428:	00c00044 	movi	r3,1
 508142c:	10c00035 	stwio	r3,0(r2)
 5081430:	00000306 	br	5081440 <i2c_write+0x7c>
        }else{    
            SDA_LOW(data_base);
 5081434:	e0bffe17 	ldw	r2,-8(fp)
 5081438:	0007883a 	mov	r3,zero
 508143c:	10c00035 	stwio	r3,0(r2)
        }
        Mask >>= 1; // there is a delay in this command
 5081440:	e0bffa03 	ldbu	r2,-24(fp)
 5081444:	1004d07a 	srli	r2,r2,1
 5081448:	e0bffa05 	stb	r2,-24(fp)
        // clock high
        SCL_HIGH(clk_base);
 508144c:	e0bffd17 	ldw	r2,-12(fp)
 5081450:	00c00044 	movi	r3,1
 5081454:	10c00035 	stwio	r3,0(r2)
        SCL_DELAY;
 5081458:	01000044 	movi	r4,1
 508145c:	508c51c0 	call	508c51c <usleep>
        SCL_LOW(clk_base);
 5081460:	e0bffd17 	ldw	r2,-12(fp)
 5081464:	0007883a 	mov	r3,zero
 5081468:	10c00035 	stwio	r3,0(r2)
        SCL_DELAY;
 508146c:	01000044 	movi	r4,1
 5081470:	508c51c0 	call	508c51c <usleep>
    
    // assume, SCL = 0
    
    SDA_DIR_OUT(data_base);  // data write mode
    
    for(i=0;i<8;i++){
 5081474:	e0bffb17 	ldw	r2,-20(fp)
 5081478:	10800044 	addi	r2,r2,1
 508147c:	e0bffb15 	stw	r2,-20(fp)
 5081480:	e0bffb17 	ldw	r2,-20(fp)
 5081484:	10800210 	cmplti	r2,r2,8
 5081488:	103fde1e 	bne	r2,zero,5081404 <i2c_write+0x40>
        SCL_LOW(clk_base);
        SCL_DELAY;
    }
    
    //===== get ack
    SDA_DIR_IN(data_base);  // data read mode
 508148c:	e0bffe17 	ldw	r2,-8(fp)
 5081490:	10800104 	addi	r2,r2,4
 5081494:	0007883a 	mov	r3,zero
 5081498:	10c00035 	stwio	r3,0(r2)
    //SCL_DELAY;
    // clock high
    SCL_HIGH(clk_base);  // clock high
 508149c:	e0bffd17 	ldw	r2,-12(fp)
 50814a0:	00c00044 	movi	r3,1
 50814a4:	10c00035 	stwio	r3,0(r2)
    SCL_DELAY;  // clock high delay
 50814a8:	01000044 	movi	r4,1
 50814ac:	508c51c0 	call	508c51c <usleep>
    bAck = SDA_READ(data_base)?FALSE:TRUE;  // get ack
 50814b0:	e0bffe17 	ldw	r2,-8(fp)
 50814b4:	10800037 	ldwio	r2,0(r2)
 50814b8:	1005003a 	cmpeq	r2,r2,zero
 50814bc:	10803fcc 	andi	r2,r2,255
 50814c0:	e0bffc15 	stw	r2,-16(fp)
    //SCL_DELAY;
    //SDA_DIR_OUT;
    SCL_LOW(clk_base); // clock low         
 50814c4:	e0bffd17 	ldw	r2,-12(fp)
 50814c8:	0007883a 	mov	r3,zero
 50814cc:	10c00035 	stwio	r3,0(r2)
    SCL_DELAY; // clock low delay
 50814d0:	01000044 	movi	r4,1
 50814d4:	508c51c0 	call	508c51c <usleep>
    return bAck;
 50814d8:	e0bffc17 	ldw	r2,-16(fp)
}    
 50814dc:	e037883a 	mov	sp,fp
 50814e0:	dfc00117 	ldw	ra,4(sp)
 50814e4:	df000017 	ldw	fp,0(sp)
 50814e8:	dec00204 	addi	sp,sp,8
 50814ec:	f800283a 	ret

050814f0 <i2c_read>:

void i2c_read(alt_u32 clk_base, alt_u32 data_base, alt_u8 *pData, bool bAck){ // return true if device response ack
 50814f0:	defff804 	addi	sp,sp,-32
 50814f4:	dfc00715 	stw	ra,28(sp)
 50814f8:	df000615 	stw	fp,24(sp)
 50814fc:	df000604 	addi	fp,sp,24
 5081500:	e13ffc15 	stw	r4,-16(fp)
 5081504:	e17ffd15 	stw	r5,-12(fp)
 5081508:	e1bffe15 	stw	r6,-8(fp)
 508150c:	e1ffff15 	stw	r7,-4(fp)
    alt_u8 Data=0;
 5081510:	e03ffa05 	stb	zero,-24(fp)
    int i;
    
    // assume SCL = low
    
    SDA_DIR_IN(data_base);  // set data read mode
 5081514:	e0bffd17 	ldw	r2,-12(fp)
 5081518:	10800104 	addi	r2,r2,4
 508151c:	0007883a 	mov	r3,zero
 5081520:	10c00035 	stwio	r3,0(r2)
    SCL_LOW(clk_base); // clock low
 5081524:	e0bffc17 	ldw	r2,-16(fp)
 5081528:	0007883a 	mov	r3,zero
 508152c:	10c00035 	stwio	r3,0(r2)
    SCL_DELAY; // clock low delay
 5081530:	01000044 	movi	r4,1
 5081534:	508c51c0 	call	508c51c <usleep>

    for(i=0;i<8;i++){
 5081538:	e03ffb15 	stw	zero,-20(fp)
 508153c:	00001606 	br	5081598 <i2c_read+0xa8>
        Data <<= 1;
 5081540:	e0bffa03 	ldbu	r2,-24(fp)
 5081544:	1085883a 	add	r2,r2,r2
 5081548:	e0bffa05 	stb	r2,-24(fp)
        SCL_HIGH(clk_base);  // clock high
 508154c:	e0bffc17 	ldw	r2,-16(fp)
 5081550:	00c00044 	movi	r3,1
 5081554:	10c00035 	stwio	r3,0(r2)
        SCL_DELAY;
 5081558:	01000044 	movi	r4,1
 508155c:	508c51c0 	call	508c51c <usleep>
        if (SDA_READ(data_base))  // read data   
 5081560:	e0bffd17 	ldw	r2,-12(fp)
 5081564:	10800037 	ldwio	r2,0(r2)
 5081568:	10000326 	beq	r2,zero,5081578 <i2c_read+0x88>
            Data |= 0x01;
 508156c:	e0bffa03 	ldbu	r2,-24(fp)
 5081570:	10800054 	ori	r2,r2,1
 5081574:	e0bffa05 	stb	r2,-24(fp)
        SCL_LOW(clk_base);  // clock log  
 5081578:	e0bffc17 	ldw	r2,-16(fp)
 508157c:	0007883a 	mov	r3,zero
 5081580:	10c00035 	stwio	r3,0(r2)
        SCL_DELAY;
 5081584:	01000044 	movi	r4,1
 5081588:	508c51c0 	call	508c51c <usleep>
    
    SDA_DIR_IN(data_base);  // set data read mode
    SCL_LOW(clk_base); // clock low
    SCL_DELAY; // clock low delay

    for(i=0;i<8;i++){
 508158c:	e0bffb17 	ldw	r2,-20(fp)
 5081590:	10800044 	addi	r2,r2,1
 5081594:	e0bffb15 	stw	r2,-20(fp)
 5081598:	e0bffb17 	ldw	r2,-20(fp)
 508159c:	10800210 	cmplti	r2,r2,8
 50815a0:	103fe71e 	bne	r2,zero,5081540 <i2c_read+0x50>
        SCL_LOW(clk_base);  // clock log  
        SCL_DELAY;
    }
    
    // send ACK
    SCL_LOW(clk_base);  // new, make sure data change at clk low
 50815a4:	e0bffc17 	ldw	r2,-16(fp)
 50815a8:	0007883a 	mov	r3,zero
 50815ac:	10c00035 	stwio	r3,0(r2)
    SDA_DIR_OUT(data_base);  // set data write mode
 50815b0:	e0bffd17 	ldw	r2,-12(fp)
 50815b4:	10800104 	addi	r2,r2,4
 50815b8:	00c00044 	movi	r3,1
 50815bc:	10c00035 	stwio	r3,0(r2)
    if (bAck)
 50815c0:	e0bfff17 	ldw	r2,-4(fp)
 50815c4:	10000426 	beq	r2,zero,50815d8 <i2c_read+0xe8>
        SDA_LOW(data_base);
 50815c8:	e0bffd17 	ldw	r2,-12(fp)
 50815cc:	0007883a 	mov	r3,zero
 50815d0:	10c00035 	stwio	r3,0(r2)
 50815d4:	00000306 	br	50815e4 <i2c_read+0xf4>
    else
        SDA_HIGH(data_base);
 50815d8:	e0bffd17 	ldw	r2,-12(fp)
 50815dc:	00c00044 	movi	r3,1
 50815e0:	10c00035 	stwio	r3,0(r2)
    SCL_HIGH(clk_base); // clock high
 50815e4:	e0bffc17 	ldw	r2,-16(fp)
 50815e8:	00c00044 	movi	r3,1
 50815ec:	10c00035 	stwio	r3,0(r2)
    SCL_DELAY; // clock high  delay
 50815f0:	01000044 	movi	r4,1
 50815f4:	508c51c0 	call	508c51c <usleep>
    SCL_LOW(clk_base); // clock low
 50815f8:	e0bffc17 	ldw	r2,-16(fp)
 50815fc:	0007883a 	mov	r3,zero
 5081600:	10c00035 	stwio	r3,0(r2)
    SCL_DELAY; // clock low delay
 5081604:	01000044 	movi	r4,1
 5081608:	508c51c0 	call	508c51c <usleep>
    SDA_LOW(data_base);  // data low
 508160c:	e0bffd17 	ldw	r2,-12(fp)
 5081610:	0007883a 	mov	r3,zero
 5081614:	10c00035 	stwio	r3,0(r2)
    SCL_DELAY; // data low delay
 5081618:	01000044 	movi	r4,1
 508161c:	508c51c0 	call	508c51c <usleep>
//    SDA_DIR_IN;  // set data read mode
    
    *pData = Data;
 5081620:	e0bffe17 	ldw	r2,-8(fp)
 5081624:	e0fffa03 	ldbu	r3,-24(fp)
 5081628:	10c00005 	stb	r3,0(r2)
}
 508162c:	e037883a 	mov	sp,fp
 5081630:	dfc00117 	ldw	ra,4(sp)
 5081634:	df000017 	ldw	fp,0(sp)
 5081638:	dec00204 	addi	sp,sp,8
 508163c:	f800283a 	ret

05081640 <LED_Display>:
#define LED_INIT_MASK   (0x01 << 24)

#define LED_SET(mask)   IOWR_ALTERA_AVALON_PIO_DATA(PIO_LED_BASE, mask)


void LED_Display(alt_u32 Mask){ // 1: light, 0:unlight
 5081640:	defffd04 	addi	sp,sp,-12
 5081644:	df000215 	stw	fp,8(sp)
 5081648:	df000204 	addi	fp,sp,8
 508164c:	e13fff15 	stw	r4,-4(fp)
    alt_u32 ThisMask;
    ThisMask = Mask;//~(Mask & 0x7FFFFFF);
 5081650:	e0bfff17 	ldw	r2,-4(fp)
 5081654:	e0bffe15 	stw	r2,-8(fp)
    LED_SET(ThisMask);  //0:ligh, 1:unlight
 5081658:	e0fffe17 	ldw	r3,-8(fp)
 508165c:	00810034 	movhi	r2,1024
 5081660:	10801404 	addi	r2,r2,80
 5081664:	10c00035 	stwio	r3,0(r2)
    
}
 5081668:	e037883a 	mov	sp,fp
 508166c:	df000017 	ldw	fp,0(sp)
 5081670:	dec00104 	addi	sp,sp,4
 5081674:	f800283a 	ret

05081678 <LED_AllOn>:


void LED_AllOn(void){
 5081678:	defffe04 	addi	sp,sp,-8
 508167c:	dfc00115 	stw	ra,4(sp)
 5081680:	df000015 	stw	fp,0(sp)
 5081684:	d839883a 	mov	fp,sp
    LED_Display(0xFFFFFFFF);       
 5081688:	013fffc4 	movi	r4,-1
 508168c:	50816400 	call	5081640 <LED_Display>
}
 5081690:	e037883a 	mov	sp,fp
 5081694:	dfc00117 	ldw	ra,4(sp)
 5081698:	df000017 	ldw	fp,0(sp)
 508169c:	dec00204 	addi	sp,sp,8
 50816a0:	f800283a 	ret

050816a4 <LED_AllOff>:

void LED_AllOff(void){
 50816a4:	defffe04 	addi	sp,sp,-8
 50816a8:	dfc00115 	stw	ra,4(sp)
 50816ac:	df000015 	stw	fp,0(sp)
 50816b0:	d839883a 	mov	fp,sp
    LED_Display(0x00);       
 50816b4:	0009883a 	mov	r4,zero
 50816b8:	50816400 	call	5081640 <LED_Display>
}
 50816bc:	e037883a 	mov	sp,fp
 50816c0:	dfc00117 	ldw	ra,4(sp)
 50816c4:	df000017 	ldw	fp,0(sp)
 50816c8:	dec00204 	addi	sp,sp,8
 50816cc:	f800283a 	ret

050816d0 <LED_LightCount>:


void LED_LightCount(alt_u8 LightCount){ // 1: light, 0:unlight
 50816d0:	defffb04 	addi	sp,sp,-20
 50816d4:	dfc00415 	stw	ra,16(sp)
 50816d8:	df000315 	stw	fp,12(sp)
 50816dc:	df000304 	addi	fp,sp,12
 50816e0:	2005883a 	mov	r2,r4
 50816e4:	e0bfff05 	stb	r2,-4(fp)
    alt_u32 Mask = 0;
 50816e8:	e03ffd15 	stw	zero,-12(fp)
    int i;
    for(i=0;i<LightCount;i++){
 50816ec:	e03ffe15 	stw	zero,-8(fp)
 50816f0:	00000906 	br	5081718 <LED_LightCount+0x48>
        Mask <<= 1;
 50816f4:	e0bffd17 	ldw	r2,-12(fp)
 50816f8:	1085883a 	add	r2,r2,r2
 50816fc:	e0bffd15 	stw	r2,-12(fp)
        Mask |= 0x01;
 5081700:	e0bffd17 	ldw	r2,-12(fp)
 5081704:	10800054 	ori	r2,r2,1
 5081708:	e0bffd15 	stw	r2,-12(fp)


void LED_LightCount(alt_u8 LightCount){ // 1: light, 0:unlight
    alt_u32 Mask = 0;
    int i;
    for(i=0;i<LightCount;i++){
 508170c:	e0bffe17 	ldw	r2,-8(fp)
 5081710:	10800044 	addi	r2,r2,1
 5081714:	e0bffe15 	stw	r2,-8(fp)
 5081718:	e0bfff03 	ldbu	r2,-4(fp)
 508171c:	e0fffe17 	ldw	r3,-8(fp)
 5081720:	18bff416 	blt	r3,r2,50816f4 <LED_LightCount+0x24>
        Mask <<= 1;
        Mask |= 0x01;
    }
    LED_Display(Mask);  //0:ligh, 1:unlight
 5081724:	e13ffd17 	ldw	r4,-12(fp)
 5081728:	50816400 	call	5081640 <LED_Display>
    
}
 508172c:	e037883a 	mov	sp,fp
 5081730:	dfc00117 	ldw	ra,4(sp)
 5081734:	df000017 	ldw	fp,0(sp)
 5081738:	dec00204 	addi	sp,sp,8
 508173c:	f800283a 	ret

05081740 <SEG7_Clear>:
static    unsigned char szMap[] = {
        63, 6, 91, 79, 102, 109, 125, 7, 
        127, 111, 119, 124, 57, 94, 121, 113
    };  // 0,1,2,....9, a, b, c, d, e, f
    
void SEG7_Clear(void){
 5081740:	defffe04 	addi	sp,sp,-8
 5081744:	df000115 	stw	fp,4(sp)
 5081748:	df000104 	addi	fp,sp,4
    int i;
    for(i=0;i<SEG7_NUM;i++){
 508174c:	e03fff15 	stw	zero,-4(fp)
 5081750:	00000b06 	br	5081780 <SEG7_Clear+0x40>
        SEG7_SET(i, 0x00);
 5081754:	e0bfff17 	ldw	r2,-4(fp)
 5081758:	1085883a 	add	r2,r2,r2
 508175c:	1085883a 	add	r2,r2,r2
 5081760:	1007883a 	mov	r3,r2
 5081764:	00810034 	movhi	r2,1024
 5081768:	1885883a 	add	r2,r3,r2
 508176c:	0007883a 	mov	r3,zero
 5081770:	10c00035 	stwio	r3,0(r2)
        127, 111, 119, 124, 57, 94, 121, 113
    };  // 0,1,2,....9, a, b, c, d, e, f
    
void SEG7_Clear(void){
    int i;
    for(i=0;i<SEG7_NUM;i++){
 5081774:	e0bfff17 	ldw	r2,-4(fp)
 5081778:	10800044 	addi	r2,r2,1
 508177c:	e0bfff15 	stw	r2,-4(fp)
 5081780:	e0bfff17 	ldw	r2,-4(fp)
 5081784:	10800190 	cmplti	r2,r2,6
 5081788:	103ff21e 	bne	r2,zero,5081754 <SEG7_Clear+0x14>
        SEG7_SET(i, 0x00);
    }        
}
 508178c:	e037883a 	mov	sp,fp
 5081790:	df000017 	ldw	fp,0(sp)
 5081794:	dec00104 	addi	sp,sp,4
 5081798:	f800283a 	ret

0508179c <SEG7_Full>:
void SEG7_Full(void){
 508179c:	defffe04 	addi	sp,sp,-8
 50817a0:	df000115 	stw	fp,4(sp)
 50817a4:	df000104 	addi	fp,sp,4
    int i;
    for(i=0;i<SEG7_NUM;i++){
 50817a8:	e03fff15 	stw	zero,-4(fp)
 50817ac:	00000b06 	br	50817dc <SEG7_Full+0x40>
        SEG7_SET(i, 0xFF);
 50817b0:	e0bfff17 	ldw	r2,-4(fp)
 50817b4:	1085883a 	add	r2,r2,r2
 50817b8:	1085883a 	add	r2,r2,r2
 50817bc:	1007883a 	mov	r3,r2
 50817c0:	00810034 	movhi	r2,1024
 50817c4:	1885883a 	add	r2,r3,r2
 50817c8:	00c03fc4 	movi	r3,255
 50817cc:	10c00035 	stwio	r3,0(r2)
        SEG7_SET(i, 0x00);
    }        
}
void SEG7_Full(void){
    int i;
    for(i=0;i<SEG7_NUM;i++){
 50817d0:	e0bfff17 	ldw	r2,-4(fp)
 50817d4:	10800044 	addi	r2,r2,1
 50817d8:	e0bfff15 	stw	r2,-4(fp)
 50817dc:	e0bfff17 	ldw	r2,-4(fp)
 50817e0:	10800190 	cmplti	r2,r2,6
 50817e4:	103ff21e 	bne	r2,zero,50817b0 <SEG7_Full+0x14>
        SEG7_SET(i, 0xFF);
    }        
}
 50817e8:	e037883a 	mov	sp,fp
 50817ec:	df000017 	ldw	fp,0(sp)
 50817f0:	dec00104 	addi	sp,sp,4
 50817f4:	f800283a 	ret

050817f8 <SEG7_Number>:

void SEG7_Number(void){
 50817f8:	defffe04 	addi	sp,sp,-8
 50817fc:	df000115 	stw	fp,4(sp)
 5081800:	df000104 	addi	fp,sp,4
    int i;
    for(i=0;i<SEG7_NUM;i++){
 5081804:	e03fff15 	stw	zero,-4(fp)
 5081808:	00001006 	br	508184c <SEG7_Number+0x54>
        SEG7_SET(i, szMap[i]);
 508180c:	e0bfff17 	ldw	r2,-4(fp)
 5081810:	1085883a 	add	r2,r2,r2
 5081814:	1085883a 	add	r2,r2,r2
 5081818:	1007883a 	mov	r3,r2
 508181c:	00810034 	movhi	r2,1024
 5081820:	1885883a 	add	r2,r3,r2
 5081824:	01014274 	movhi	r4,1289
 5081828:	213d0004 	addi	r4,r4,-3072
 508182c:	e0ffff17 	ldw	r3,-4(fp)
 5081830:	20c7883a 	add	r3,r4,r3
 5081834:	18c00003 	ldbu	r3,0(r3)
 5081838:	18c03fcc 	andi	r3,r3,255
 508183c:	10c00035 	stwio	r3,0(r2)
    }        
}

void SEG7_Number(void){
    int i;
    for(i=0;i<SEG7_NUM;i++){
 5081840:	e0bfff17 	ldw	r2,-4(fp)
 5081844:	10800044 	addi	r2,r2,1
 5081848:	e0bfff15 	stw	r2,-4(fp)
 508184c:	e0bfff17 	ldw	r2,-4(fp)
 5081850:	10800190 	cmplti	r2,r2,6
 5081854:	103fed1e 	bne	r2,zero,508180c <SEG7_Number+0x14>
        SEG7_SET(i, szMap[i]);
    }        
}
 5081858:	e037883a 	mov	sp,fp
 508185c:	df000017 	ldw	fp,0(sp)
 5081860:	dec00104 	addi	sp,sp,4
 5081864:	f800283a 	ret

05081868 <SEG7_Hex>:

void SEG7_Hex(alt_u32 Data, alt_u8 point_mask){
 5081868:	defffb04 	addi	sp,sp,-20
 508186c:	df000415 	stw	fp,16(sp)
 5081870:	df000404 	addi	fp,sp,16
 5081874:	e13ffe15 	stw	r4,-8(fp)
 5081878:	2805883a 	mov	r2,r5
 508187c:	e0bfff05 	stb	r2,-4(fp)
    alt_u8 mask = 0x01;
 5081880:	00800044 	movi	r2,1
 5081884:	e0bffc05 	stb	r2,-16(fp)
    alt_u8 seg_mask;
    int i;
    
    //
    seg_mask = 0;
 5081888:	e03ffc45 	stb	zero,-15(fp)
    for(i=0;i<SEG7_NUM;i++){
 508188c:	e03ffd15 	stw	zero,-12(fp)
 5081890:	00002106 	br	5081918 <SEG7_Hex+0xb0>
        seg_mask = szMap[Data & 0x0F];
 5081894:	e0bffe17 	ldw	r2,-8(fp)
 5081898:	108003cc 	andi	r2,r2,15
 508189c:	00c14274 	movhi	r3,1289
 50818a0:	18fd0004 	addi	r3,r3,-3072
 50818a4:	1885883a 	add	r2,r3,r2
 50818a8:	10800003 	ldbu	r2,0(r2)
 50818ac:	e0bffc45 	stb	r2,-15(fp)
        Data >>= 4;
 50818b0:	e0bffe17 	ldw	r2,-8(fp)
 50818b4:	1004d13a 	srli	r2,r2,4
 50818b8:	e0bffe15 	stw	r2,-8(fp)
        if (point_mask & mask)
 50818bc:	e0ffff03 	ldbu	r3,-4(fp)
 50818c0:	e0bffc03 	ldbu	r2,-16(fp)
 50818c4:	1884703a 	and	r2,r3,r2
 50818c8:	10803fcc 	andi	r2,r2,255
 50818cc:	10000426 	beq	r2,zero,50818e0 <SEG7_Hex+0x78>
            seg_mask |= 0x80;
 50818d0:	e0fffc43 	ldbu	r3,-15(fp)
 50818d4:	00bfe004 	movi	r2,-128
 50818d8:	1884b03a 	or	r2,r3,r2
 50818dc:	e0bffc45 	stb	r2,-15(fp)
        mask <<= 1;     
 50818e0:	e0bffc03 	ldbu	r2,-16(fp)
 50818e4:	1085883a 	add	r2,r2,r2
 50818e8:	e0bffc05 	stb	r2,-16(fp)
        SEG7_SET(i, seg_mask);
 50818ec:	e0bffd17 	ldw	r2,-12(fp)
 50818f0:	1085883a 	add	r2,r2,r2
 50818f4:	1085883a 	add	r2,r2,r2
 50818f8:	1007883a 	mov	r3,r2
 50818fc:	00810034 	movhi	r2,1024
 5081900:	1885883a 	add	r2,r3,r2
 5081904:	e0fffc43 	ldbu	r3,-15(fp)
 5081908:	10c00035 	stwio	r3,0(r2)
    alt_u8 seg_mask;
    int i;
    
    //
    seg_mask = 0;
    for(i=0;i<SEG7_NUM;i++){
 508190c:	e0bffd17 	ldw	r2,-12(fp)
 5081910:	10800044 	addi	r2,r2,1
 5081914:	e0bffd15 	stw	r2,-12(fp)
 5081918:	e0bffd17 	ldw	r2,-12(fp)
 508191c:	10800190 	cmplti	r2,r2,6
 5081920:	103fdc1e 	bne	r2,zero,5081894 <SEG7_Hex+0x2c>
        if (point_mask & mask)
            seg_mask |= 0x80;
        mask <<= 1;     
        SEG7_SET(i, seg_mask);
    }        
}
 5081924:	e037883a 	mov	sp,fp
 5081928:	df000017 	ldw	fp,0(sp)
 508192c:	dec00104 	addi	sp,sp,4
 5081930:	f800283a 	ret

05081934 <SEG7_Decimal>:

void SEG7_Decimal(alt_u32 Data, alt_u8 point_mask){
 5081934:	defffa04 	addi	sp,sp,-24
 5081938:	dfc00515 	stw	ra,20(sp)
 508193c:	df000415 	stw	fp,16(sp)
 5081940:	df000404 	addi	fp,sp,16
 5081944:	e13ffe15 	stw	r4,-8(fp)
 5081948:	2805883a 	mov	r2,r5
 508194c:	e0bfff05 	stb	r2,-4(fp)
    alt_u8 mask = 0x01;
 5081950:	00800044 	movi	r2,1
 5081954:	e0bffc05 	stb	r2,-16(fp)
    alt_u8 seg_mask;
    int i;
    
    //
    seg_mask = 0;
 5081958:	e03ffc45 	stb	zero,-15(fp)
    for(i=0;i<SEG7_NUM;i++){
 508195c:	e03ffd15 	stw	zero,-12(fp)
 5081960:	00002506 	br	50819f8 <SEG7_Decimal+0xc4>
        seg_mask = szMap[Data%10];
 5081964:	e0bffe17 	ldw	r2,-8(fp)
 5081968:	1009883a 	mov	r4,r2
 508196c:	01400284 	movi	r5,10
 5081970:	50827d00 	call	50827d0 <__umodsi3>
 5081974:	00c14274 	movhi	r3,1289
 5081978:	18fd0004 	addi	r3,r3,-3072
 508197c:	1885883a 	add	r2,r3,r2
 5081980:	10800003 	ldbu	r2,0(r2)
 5081984:	e0bffc45 	stb	r2,-15(fp)
        Data /= 10;
 5081988:	e0bffe17 	ldw	r2,-8(fp)
 508198c:	1009883a 	mov	r4,r2
 5081990:	01400284 	movi	r5,10
 5081994:	50827c80 	call	50827c8 <__udivsi3>
 5081998:	e0bffe15 	stw	r2,-8(fp)
        if (point_mask & mask)
 508199c:	e0ffff03 	ldbu	r3,-4(fp)
 50819a0:	e0bffc03 	ldbu	r2,-16(fp)
 50819a4:	1884703a 	and	r2,r3,r2
 50819a8:	10803fcc 	andi	r2,r2,255
 50819ac:	10000426 	beq	r2,zero,50819c0 <SEG7_Decimal+0x8c>
            seg_mask |= 0x80;
 50819b0:	e0fffc43 	ldbu	r3,-15(fp)
 50819b4:	00bfe004 	movi	r2,-128
 50819b8:	1884b03a 	or	r2,r3,r2
 50819bc:	e0bffc45 	stb	r2,-15(fp)
        mask <<= 1;   
 50819c0:	e0bffc03 	ldbu	r2,-16(fp)
 50819c4:	1085883a 	add	r2,r2,r2
 50819c8:	e0bffc05 	stb	r2,-16(fp)
        SEG7_SET(i, seg_mask);
 50819cc:	e0bffd17 	ldw	r2,-12(fp)
 50819d0:	1085883a 	add	r2,r2,r2
 50819d4:	1085883a 	add	r2,r2,r2
 50819d8:	1007883a 	mov	r3,r2
 50819dc:	00810034 	movhi	r2,1024
 50819e0:	1885883a 	add	r2,r3,r2
 50819e4:	e0fffc43 	ldbu	r3,-15(fp)
 50819e8:	10c00035 	stwio	r3,0(r2)
    alt_u8 seg_mask;
    int i;
    
    //
    seg_mask = 0;
    for(i=0;i<SEG7_NUM;i++){
 50819ec:	e0bffd17 	ldw	r2,-12(fp)
 50819f0:	10800044 	addi	r2,r2,1
 50819f4:	e0bffd15 	stw	r2,-12(fp)
 50819f8:	e0bffd17 	ldw	r2,-12(fp)
 50819fc:	10800190 	cmplti	r2,r2,6
 5081a00:	103fd81e 	bne	r2,zero,5081964 <SEG7_Decimal+0x30>
            seg_mask |= 0x80;
        mask <<= 1;   
        SEG7_SET(i, seg_mask);
    }        
  
} 
 5081a04:	e037883a 	mov	sp,fp
 5081a08:	dfc00117 	ldw	ra,4(sp)
 5081a0c:	df000017 	ldw	fp,0(sp)
 5081a10:	dec00204 	addi	sp,sp,8
 5081a14:	f800283a 	ret

05081a18 <debug_output>:
    if (!UART_IsOpened())
        UART_Open();
    UART_WriteString(pMessage);  // UART debug
}
#else
void debug_output(char *pMessage){
 5081a18:	defffd04 	addi	sp,sp,-12
 5081a1c:	dfc00215 	stw	ra,8(sp)
 5081a20:	df000115 	stw	fp,4(sp)
 5081a24:	df000104 	addi	fp,sp,4
 5081a28:	e13fff15 	stw	r4,-4(fp)
    printf(pMessage);
 5081a2c:	e13fff17 	ldw	r4,-4(fp)
 5081a30:	50828040 	call	5082804 <printf>
}
 5081a34:	e037883a 	mov	sp,fp
 5081a38:	dfc00117 	ldw	ra,4(sp)
 5081a3c:	df000017 	ldw	fp,0(sp)
 5081a40:	dec00204 	addi	sp,sp,8
 5081a44:	f800283a 	ret

05081a48 <myprintf>:

#endif


int myprintf(char *format, ...){
 5081a48:	deff7804 	addi	sp,sp,-544
 5081a4c:	dfc08415 	stw	ra,528(sp)
 5081a50:	df008315 	stw	fp,524(sp)
 5081a54:	df008304 	addi	fp,sp,524
 5081a58:	e1400215 	stw	r5,8(fp)
 5081a5c:	e1800315 	stw	r6,12(fp)
 5081a60:	e1c00415 	stw	r7,16(fp)
 5081a64:	e13fff15 	stw	r4,-4(fp)
    int rc;
    char szText[512];
    
    va_list paramList;
    va_start(paramList, format);
 5081a68:	e0800204 	addi	r2,fp,8
 5081a6c:	e0bffe15 	stw	r2,-8(fp)
    rc = vsnprintf(szText, 512, format, paramList);
 5081a70:	e0bffe17 	ldw	r2,-8(fp)
 5081a74:	e0ff7e04 	addi	r3,fp,-520
 5081a78:	1809883a 	mov	r4,r3
 5081a7c:	01408004 	movi	r5,512
 5081a80:	e1bfff17 	ldw	r6,-4(fp)
 5081a84:	100f883a 	mov	r7,r2
 5081a88:	50849240 	call	5084924 <vsnprintf>
 5081a8c:	e0bf7d15 	stw	r2,-524(fp)
    va_end(paramList);
    
    debug_output(szText);
 5081a90:	e0bf7e04 	addi	r2,fp,-520
 5081a94:	1009883a 	mov	r4,r2
 5081a98:	5081a180 	call	5081a18 <debug_output>

    return rc;    
 5081a9c:	e0bf7d17 	ldw	r2,-524(fp)
}
 5081aa0:	e037883a 	mov	sp,fp
 5081aa4:	dfc00117 	ldw	ra,4(sp)
 5081aa8:	df000017 	ldw	fp,0(sp)
 5081aac:	dec00504 	addi	sp,sp,20
 5081ab0:	f800283a 	ret

05081ab4 <myprintf_hex_array>:


int myprintf_hex_array(unsigned char *pHex, int len){
 5081ab4:	defff704 	addi	sp,sp,-36
 5081ab8:	dfc00815 	stw	ra,32(sp)
 5081abc:	df000715 	stw	fp,28(sp)
 5081ac0:	df000704 	addi	fp,sp,28
 5081ac4:	e13ffe15 	stw	r4,-8(fp)
 5081ac8:	e17fff15 	stw	r5,-4(fp)
    int i;
    unsigned char szText[16];
    for(i=0;i<len;i++){
 5081acc:	e03ff915 	stw	zero,-28(fp)
 5081ad0:	00001106 	br	5081b18 <myprintf_hex_array+0x64>
        sprintf(szText, "[%02X]", *(pHex+i));
 5081ad4:	e0bff917 	ldw	r2,-28(fp)
 5081ad8:	e0fffe17 	ldw	r3,-8(fp)
 5081adc:	1885883a 	add	r2,r3,r2
 5081ae0:	10800003 	ldbu	r2,0(r2)
 5081ae4:	10803fcc 	andi	r2,r2,255
 5081ae8:	e0fffa04 	addi	r3,fp,-24
 5081aec:	1809883a 	mov	r4,r3
 5081af0:	01414274 	movhi	r5,1289
 5081af4:	2979e904 	addi	r5,r5,-6236
 5081af8:	100d883a 	mov	r6,r2
 5081afc:	50829300 	call	5082930 <sprintf>
        DEBUG((szText));
 5081b00:	e0bffa04 	addi	r2,fp,-24
 5081b04:	1009883a 	mov	r4,r2
 5081b08:	5081a480 	call	5081a48 <myprintf>


int myprintf_hex_array(unsigned char *pHex, int len){
    int i;
    unsigned char szText[16];
    for(i=0;i<len;i++){
 5081b0c:	e0bff917 	ldw	r2,-28(fp)
 5081b10:	10800044 	addi	r2,r2,1
 5081b14:	e0bff915 	stw	r2,-28(fp)
 5081b18:	e0fff917 	ldw	r3,-28(fp)
 5081b1c:	e0bfff17 	ldw	r2,-4(fp)
 5081b20:	18bfec16 	blt	r3,r2,5081ad4 <myprintf_hex_array+0x20>
        sprintf(szText, "[%02X]", *(pHex+i));
        DEBUG((szText));
    }
    return len;
 5081b24:	e0bfff17 	ldw	r2,-4(fp)
}
 5081b28:	e037883a 	mov	sp,fp
 5081b2c:	dfc00117 	ldw	ra,4(sp)
 5081b30:	df000017 	ldw	fp,0(sp)
 5081b34:	dec00204 	addi	sp,sp,8
 5081b38:	f800283a 	ret

05081b3c <myprintf_dword_array>:

int  myprintf_dword_array(unsigned int *pArray, int nElementCount){
 5081b3c:	defff704 	addi	sp,sp,-36
 5081b40:	dfc00815 	stw	ra,32(sp)
 5081b44:	df000715 	stw	fp,28(sp)
 5081b48:	df000704 	addi	fp,sp,28
 5081b4c:	e13ffe15 	stw	r4,-8(fp)
 5081b50:	e17fff15 	stw	r5,-4(fp)
    int i;
    char szText[16];
    for(i=0;i<nElementCount;i++){
 5081b54:	e03ff915 	stw	zero,-28(fp)
 5081b58:	00001206 	br	5081ba4 <myprintf_dword_array+0x68>
        sprintf(szText, "[%08X]", *(pArray+i));
 5081b5c:	e0bff917 	ldw	r2,-28(fp)
 5081b60:	1085883a 	add	r2,r2,r2
 5081b64:	1085883a 	add	r2,r2,r2
 5081b68:	e0fffe17 	ldw	r3,-8(fp)
 5081b6c:	1885883a 	add	r2,r3,r2
 5081b70:	10800017 	ldw	r2,0(r2)
 5081b74:	e0fffa04 	addi	r3,fp,-24
 5081b78:	1809883a 	mov	r4,r3
 5081b7c:	01414274 	movhi	r5,1289
 5081b80:	2979eb04 	addi	r5,r5,-6228
 5081b84:	100d883a 	mov	r6,r2
 5081b88:	50829300 	call	5082930 <sprintf>
        DEBUG((szText));
 5081b8c:	e0bffa04 	addi	r2,fp,-24
 5081b90:	1009883a 	mov	r4,r2
 5081b94:	5081a480 	call	5081a48 <myprintf>
}

int  myprintf_dword_array(unsigned int *pArray, int nElementCount){
    int i;
    char szText[16];
    for(i=0;i<nElementCount;i++){
 5081b98:	e0bff917 	ldw	r2,-28(fp)
 5081b9c:	10800044 	addi	r2,r2,1
 5081ba0:	e0bff915 	stw	r2,-28(fp)
 5081ba4:	e0fff917 	ldw	r3,-28(fp)
 5081ba8:	e0bfff17 	ldw	r2,-4(fp)
 5081bac:	18bfeb16 	blt	r3,r2,5081b5c <myprintf_dword_array+0x20>
        sprintf(szText, "[%08X]", *(pArray+i));
        DEBUG((szText));
    }
    return nElementCount;
 5081bb0:	e0bfff17 	ldw	r2,-4(fp)
}
 5081bb4:	e037883a 	mov	sp,fp
 5081bb8:	dfc00117 	ldw	ra,4(sp)
 5081bbc:	df000017 	ldw	fp,0(sp)
 5081bc0:	dec00204 	addi	sp,sp,8
 5081bc4:	f800283a 	ret

05081bc8 <ui_is_mic_record>:
int record_sample_rate;

///////////////////////////////////////////////////////////////////////////////
//////////// Internal function implement(body) ////////////////////////////////
///////////////////////////////////////////////////////////////////////////////
bool ui_is_mic_record(void){
 5081bc8:	defffe04 	addi	sp,sp,-8
 5081bcc:	df000115 	stw	fp,4(sp)
 5081bd0:	df000104 	addi	fp,sp,4
    bool bMicRecord;
    bMicRecord = (IORD(SW_BASE, 0) & 0x01)?FALSE:TRUE;
 5081bd4:	00810034 	movhi	r2,1024
 5081bd8:	10801004 	addi	r2,r2,64
 5081bdc:	10800037 	ldwio	r2,0(r2)
 5081be0:	1080004c 	andi	r2,r2,1
 5081be4:	1005003a 	cmpeq	r2,r2,zero
 5081be8:	10803fcc 	andi	r2,r2,255
 5081bec:	e0bfff15 	stw	r2,-4(fp)
    return bMicRecord;    
 5081bf0:	e0bfff17 	ldw	r2,-4(fp)
}
 5081bf4:	e037883a 	mov	sp,fp
 5081bf8:	df000017 	ldw	fp,0(sp)
 5081bfc:	dec00104 	addi	sp,sp,4
 5081c00:	f800283a 	ret

05081c04 <ui_is_mic_boost>:

bool ui_is_mic_boost(void){
 5081c04:	defffe04 	addi	sp,sp,-8
 5081c08:	df000115 	stw	fp,4(sp)
 5081c0c:	df000104 	addi	fp,sp,4
    bool bMicBoost;
    bMicBoost = (IORD(SW_BASE, 0) & (0x01 << 1))?TRUE:FALSE;
 5081c10:	00810034 	movhi	r2,1024
 5081c14:	10801004 	addi	r2,r2,64
 5081c18:	10800037 	ldwio	r2,0(r2)
 5081c1c:	1080008c 	andi	r2,r2,2
 5081c20:	1004c03a 	cmpne	r2,r2,zero
 5081c24:	10803fcc 	andi	r2,r2,255
 5081c28:	e0bfff15 	stw	r2,-4(fp)
    return bMicBoost;    
 5081c2c:	e0bfff17 	ldw	r2,-4(fp)
}
 5081c30:	e037883a 	mov	sp,fp
 5081c34:	df000017 	ldw	fp,0(sp)
 5081c38:	dec00104 	addi	sp,sp,4
 5081c3c:	f800283a 	ret

05081c40 <ui_is_dac_zero_cross>:

bool ui_is_dac_zero_cross(void){
 5081c40:	defffe04 	addi	sp,sp,-8
 5081c44:	df000115 	stw	fp,4(sp)
 5081c48:	df000104 	addi	fp,sp,4
    bool bZeroCross;
    bZeroCross = (IORD(SW_BASE, 0) & (0x01 << 2))?TRUE:FALSE;
 5081c4c:	00810034 	movhi	r2,1024
 5081c50:	10801004 	addi	r2,r2,64
 5081c54:	10800037 	ldwio	r2,0(r2)
 5081c58:	1080010c 	andi	r2,r2,4
 5081c5c:	1004c03a 	cmpne	r2,r2,zero
 5081c60:	10803fcc 	andi	r2,r2,255
 5081c64:	e0bfff15 	stw	r2,-4(fp)
    return bZeroCross;      
 5081c68:	e0bfff17 	ldw	r2,-4(fp)
}
 5081c6c:	e037883a 	mov	sp,fp
 5081c70:	df000017 	ldw	fp,0(sp)
 5081c74:	dec00104 	addi	sp,sp,4
 5081c78:	f800283a 	ret

05081c7c <ui_get_sample_rate>:

int ui_get_sample_rate(void){
 5081c7c:	defffd04 	addi	sp,sp,-12
 5081c80:	df000215 	stw	fp,8(sp)
 5081c84:	df000204 	addi	fp,sp,8
    int sample_rate = 96000;
 5081c88:	00800074 	movhi	r2,1
 5081c8c:	109dc004 	addi	r2,r2,30464
 5081c90:	e0bffe15 	stw	r2,-8(fp)
    alt_u32 mask;
    mask = IORD(SW_BASE, 0);
 5081c94:	00810034 	movhi	r2,1024
 5081c98:	10801004 	addi	r2,r2,64
 5081c9c:	10800037 	ldwio	r2,0(r2)
 5081ca0:	e0bfff15 	stw	r2,-4(fp)
    mask = (mask >> 3) & 0x07;
 5081ca4:	e0bfff17 	ldw	r2,-4(fp)
 5081ca8:	1004d0fa 	srli	r2,r2,3
 5081cac:	108001cc 	andi	r2,r2,7
 5081cb0:	e0bfff15 	stw	r2,-4(fp)
    if (mask == 1)
 5081cb4:	e0bfff17 	ldw	r2,-4(fp)
 5081cb8:	10800058 	cmpnei	r2,r2,1
 5081cbc:	1000031e 	bne	r2,zero,5081ccc <ui_get_sample_rate+0x50>
        sample_rate = 48000;
 5081cc0:	00aee014 	movui	r2,48000
 5081cc4:	e0bffe15 	stw	r2,-8(fp)
 5081cc8:	00001106 	br	5081d10 <ui_get_sample_rate+0x94>
    else if (mask == 2)
 5081ccc:	e0bfff17 	ldw	r2,-4(fp)
 5081cd0:	10800098 	cmpnei	r2,r2,2
 5081cd4:	1000031e 	bne	r2,zero,5081ce4 <ui_get_sample_rate+0x68>
        sample_rate = 44100;
 5081cd8:	00ab1114 	movui	r2,44100
 5081cdc:	e0bffe15 	stw	r2,-8(fp)
 5081ce0:	00000b06 	br	5081d10 <ui_get_sample_rate+0x94>
    else if (mask == 3)
 5081ce4:	e0bfff17 	ldw	r2,-4(fp)
 5081ce8:	108000d8 	cmpnei	r2,r2,3
 5081cec:	1000031e 	bne	r2,zero,5081cfc <ui_get_sample_rate+0x80>
        sample_rate = 32000;
 5081cf0:	009f4004 	movi	r2,32000
 5081cf4:	e0bffe15 	stw	r2,-8(fp)
 5081cf8:	00000506 	br	5081d10 <ui_get_sample_rate+0x94>
    else if (mask == 4)
 5081cfc:	e0bfff17 	ldw	r2,-4(fp)
 5081d00:	10800118 	cmpnei	r2,r2,4
 5081d04:	1000021e 	bne	r2,zero,5081d10 <ui_get_sample_rate+0x94>
        sample_rate = 8000;
 5081d08:	0087d004 	movi	r2,8000
 5081d0c:	e0bffe15 	stw	r2,-8(fp)
    return sample_rate;      
 5081d10:	e0bffe17 	ldw	r2,-8(fp)
} 
 5081d14:	e037883a 	mov	sp,fp
 5081d18:	df000017 	ldw	fp,0(sp)
 5081d1c:	dec00104 	addi	sp,sp,4
 5081d20:	f800283a 	ret

05081d24 <button_monitor_isr>:

void button_monitor_isr(void* context, alt_u32 id){
 5081d24:	defffc04 	addi	sp,sp,-16
 5081d28:	df000315 	stw	fp,12(sp)
 5081d2c:	df000304 	addi	fp,sp,12
 5081d30:	e13ffe15 	stw	r4,-8(fp)
 5081d34:	e17fff15 	stw	r5,-4(fp)
    volatile alt_u32* pPressedMask = (volatile alt_u32*)context;
 5081d38:	e0bffe17 	ldw	r2,-8(fp)
 5081d3c:	e0bffd15 	stw	r2,-12(fp)
    *pPressedMask |= IORD_ALTERA_AVALON_PIO_EDGE_CAP(KEY_BASE) & 0x0F;  // 4-button 
 5081d40:	e0bffd17 	ldw	r2,-12(fp)
 5081d44:	10c00017 	ldw	r3,0(r2)
 5081d48:	00810034 	movhi	r2,1024
 5081d4c:	10801b04 	addi	r2,r2,108
 5081d50:	10800037 	ldwio	r2,0(r2)
 5081d54:	108003cc 	andi	r2,r2,15
 5081d58:	1886b03a 	or	r3,r3,r2
 5081d5c:	e0bffd17 	ldw	r2,-12(fp)
 5081d60:	10c00015 	stw	r3,0(r2)
    
    IOWR_ALTERA_AVALON_PIO_EDGE_CAP(KEY_BASE,0); 
 5081d64:	0007883a 	mov	r3,zero
 5081d68:	00810034 	movhi	r2,1024
 5081d6c:	10801b04 	addi	r2,r2,108
 5081d70:	10c00035 	stwio	r3,0(r2)
}
 5081d74:	e037883a 	mov	sp,fp
 5081d78:	df000017 	ldw	fp,0(sp)
 5081d7c:	dec00104 	addi	sp,sp,4
 5081d80:	f800283a 	ret

05081d84 <button_monitor_start>:

bool button_monitor_start(volatile alt_u32 *pPressedMask){
 5081d84:	defffc04 	addi	sp,sp,-16
 5081d88:	dfc00315 	stw	ra,12(sp)
 5081d8c:	df000215 	stw	fp,8(sp)
 5081d90:	df000204 	addi	fp,sp,8
 5081d94:	e13fff15 	stw	r4,-4(fp)
    bool bSuccess = TRUE;
 5081d98:	00800044 	movi	r2,1
 5081d9c:	e0bffe15 	stw	r2,-8(fp)
    // enable interrupt
    IOWR_ALTERA_AVALON_PIO_IRQ_MASK(KEY_BASE, 0x0F); // 4-button
 5081da0:	00c003c4 	movi	r3,15
 5081da4:	00810034 	movhi	r2,1024
 5081da8:	10801a04 	addi	r2,r2,104
 5081dac:	10c00035 	stwio	r3,0(r2)
    
    // Reset the edge catpure register
    IOWR_ALTERA_AVALON_PIO_EDGE_CAP(KEY_BASE,0); 
 5081db0:	0007883a 	mov	r3,zero
 5081db4:	00810034 	movhi	r2,1024
 5081db8:	10801b04 	addi	r2,r2,108
 5081dbc:	10c00035 	stwio	r3,0(r2)
    
    // register IRQ
    if (bSuccess && (alt_irq_register(KEY_IRQ, (void *)pPressedMask, button_monitor_isr) != 0)){
 5081dc0:	e0bffe17 	ldw	r2,-8(fp)
 5081dc4:	10000a26 	beq	r2,zero,5081df0 <button_monitor_start+0x6c>
 5081dc8:	01000044 	movi	r4,1
 5081dcc:	e17fff17 	ldw	r5,-4(fp)
 5081dd0:	01814234 	movhi	r6,1288
 5081dd4:	31874904 	addi	r6,r6,7460
 5081dd8:	508bd680 	call	508bd68 <alt_irq_register>
 5081ddc:	10000426 	beq	r2,zero,5081df0 <button_monitor_start+0x6c>
        printf("[SW-MONITOR]register button IRQ fail\r\n");
 5081de0:	01014274 	movhi	r4,1289
 5081de4:	2139ed04 	addi	r4,r4,-6220
 5081de8:	50828c40 	call	50828c4 <puts>
        bSuccess = FALSE;
 5081dec:	e03ffe15 	stw	zero,-8(fp)
    }
    
    return bSuccess;        
 5081df0:	e0bffe17 	ldw	r2,-8(fp)
}
 5081df4:	e037883a 	mov	sp,fp
 5081df8:	dfc00117 	ldw	ra,4(sp)
 5081dfc:	df000017 	ldw	fp,0(sp)
 5081e00:	dec00204 	addi	sp,sp,8
 5081e04:	f800283a 	ret

05081e08 <init_audio>:




bool init_audio(AUDIO_FUNC audio_func){
 5081e08:	defffb04 	addi	sp,sp,-20
 5081e0c:	dfc00415 	stw	ra,16(sp)
 5081e10:	df000315 	stw	fp,12(sp)
 5081e14:	df000304 	addi	fp,sp,12
 5081e18:	e13fff15 	stw	r4,-4(fp)
    bool bSuccess = TRUE;
 5081e1c:	00800044 	movi	r2,1
 5081e20:	e0bffd15 	stw	r2,-12(fp)
    AUDIO_InterfaceActive(FALSE);
 5081e24:	0009883a 	mov	r4,zero
 5081e28:	508038c0 	call	508038c <AUDIO_InterfaceActive>
    //
    if (audio_func == MIC_RECORD){
 5081e2c:	e0bfff17 	ldw	r2,-4(fp)
 5081e30:	10000f1e 	bne	r2,zero,5081e70 <init_audio+0x68>
        bool bMicBoost;
        bMicBoost = ui_is_mic_boost();
 5081e34:	5081c040 	call	5081c04 <ui_is_mic_boost>
 5081e38:	e0bffe15 	stw	r2,-8(fp)
        AUDIO_SetInputSource(SOURCE_MIC);
 5081e3c:	0009883a 	mov	r4,zero
 5081e40:	508084c0 	call	508084c <AUDIO_SetInputSource>
        AUDIO_DacEnableSoftMute(TRUE);
 5081e44:	01000044 	movi	r4,1
 5081e48:	50806540 	call	5080654 <AUDIO_DacEnableSoftMute>
        AUDIO_AdcEnableHighPassFilter(FALSE);
 5081e4c:	0009883a 	mov	r4,zero
 5081e50:	508044c0 	call	508044c <AUDIO_AdcEnableHighPassFilter>
        AUDIO_MicBoost(bMicBoost);   
 5081e54:	e13ffe17 	ldw	r4,-8(fp)
 5081e58:	50803d40 	call	50803d4 <AUDIO_MicBoost>
        AUDIO_MicMute(FALSE);
 5081e5c:	0009883a 	mov	r4,zero
 5081e60:	50806e00 	call	50806e0 <AUDIO_MicMute>
        AUDIO_LineInMute(TRUE);
 5081e64:	01000044 	movi	r4,1
 5081e68:	508076c0 	call	508076c <AUDIO_LineInMute>
 5081e6c:	00002606 	br	5081f08 <init_audio+0x100>
    }else if (audio_func == LINEIN_RECORD){
 5081e70:	e0bfff17 	ldw	r2,-4(fp)
 5081e74:	10800058 	cmpnei	r2,r2,1
 5081e78:	10000e1e 	bne	r2,zero,5081eb4 <init_audio+0xac>
        AUDIO_SetInputSource(SOURCE_LINEIN);
 5081e7c:	01000044 	movi	r4,1
 5081e80:	508084c0 	call	508084c <AUDIO_SetInputSource>
        AUDIO_DacEnableSoftMute(TRUE);
 5081e84:	01000044 	movi	r4,1
 5081e88:	50806540 	call	5080654 <AUDIO_DacEnableSoftMute>
        AUDIO_AdcEnableHighPassFilter(FALSE);
 5081e8c:	0009883a 	mov	r4,zero
 5081e90:	508044c0 	call	508044c <AUDIO_AdcEnableHighPassFilter>
        AUDIO_MicMute(TRUE);
 5081e94:	01000044 	movi	r4,1
 5081e98:	50806e00 	call	50806e0 <AUDIO_MicMute>
        AUDIO_LineInMute(FALSE);
 5081e9c:	0009883a 	mov	r4,zero
 5081ea0:	508076c0 	call	508076c <AUDIO_LineInMute>
        AUDIO_SetLineInVol(0x17, 0x17);  // max 0x1F, min:0; 0x17: 0dB (assume max input is 2.0v rms)
 5081ea4:	010005c4 	movi	r4,23
 5081ea8:	014005c4 	movi	r5,23
 5081eac:	50809c40 	call	50809c4 <AUDIO_SetLineInVol>
 5081eb0:	00001506 	br	5081f08 <init_audio+0x100>
    }else if (audio_func == LINEOUT_PLAY){
 5081eb4:	e0bfff17 	ldw	r2,-4(fp)
 5081eb8:	10800098 	cmpnei	r2,r2,2
 5081ebc:	1000121e 	bne	r2,zero,5081f08 <init_audio+0x100>
        AUDIO_DacEnableSoftMute(TRUE);
 5081ec0:	01000044 	movi	r4,1
 5081ec4:	50806540 	call	5080654 <AUDIO_DacEnableSoftMute>
        AUDIO_MicBoost(FALSE);   
 5081ec8:	0009883a 	mov	r4,zero
 5081ecc:	50803d40 	call	50803d4 <AUDIO_MicBoost>
        AUDIO_MicMute(TRUE);
 5081ed0:	01000044 	movi	r4,1
 5081ed4:	50806e00 	call	50806e0 <AUDIO_MicMute>
        AUDIO_LineInMute(FALSE);
 5081ed8:	0009883a 	mov	r4,zero
 5081edc:	508076c0 	call	508076c <AUDIO_LineInMute>
        AUDIO_DacEnableSoftMute(FALSE);
 5081ee0:	0009883a 	mov	r4,zero
 5081ee4:	50806540 	call	5080654 <AUDIO_DacEnableSoftMute>
        //AUDIO_DacDeemphasisControl(DEEMPHASIS_48K);
        AUDIO_DacEnableZeroCross(ui_is_dac_zero_cross());
 5081ee8:	5081c400 	call	5081c40 <ui_is_dac_zero_cross>
 5081eec:	1009883a 	mov	r4,r2
 5081ef0:	50805740 	call	5080574 <AUDIO_DacEnableZeroCross>
        AUDIO_SetLineOutVol(LINEOUT_DEFUALT_VOL, LINEOUT_DEFUALT_VOL); // max 7F, min: 30, 0x79: 0 db
 5081ef4:	01001e44 	movi	r4,121
 5081ef8:	01401e44 	movi	r5,121
 5081efc:	5080ad40 	call	5080ad4 <AUDIO_SetLineOutVol>
        AUDIO_DacEnableSoftMute(FALSE);
 5081f00:	0009883a 	mov	r4,zero
 5081f04:	50806540 	call	5080654 <AUDIO_DacEnableSoftMute>
    }
    
    if (record_sample_rate == 8000)
 5081f08:	d0a6ab17 	ldw	r2,-25940(gp)
 5081f0c:	1087d018 	cmpnei	r2,r2,8000
 5081f10:	1000031e 	bne	r2,zero,5081f20 <init_audio+0x118>
        AUDIO_SetSampleRate(RATE_ADC8K_DAC8K);
 5081f14:	010000c4 	movi	r4,3
 5081f18:	50808dc0 	call	50808dc <AUDIO_SetSampleRate>
 5081f1c:	00001406 	br	5081f70 <init_audio+0x168>
    else if (record_sample_rate == 32000)
 5081f20:	d0a6ab17 	ldw	r2,-25940(gp)
 5081f24:	109f4018 	cmpnei	r2,r2,32000
 5081f28:	1000031e 	bne	r2,zero,5081f38 <init_audio+0x130>
        AUDIO_SetSampleRate(RATE_ADC32K_DAC32K);
 5081f2c:	01000104 	movi	r4,4
 5081f30:	50808dc0 	call	50808dc <AUDIO_SetSampleRate>
 5081f34:	00000e06 	br	5081f70 <init_audio+0x168>
    else if (record_sample_rate == 48000)
 5081f38:	d0e6ab17 	ldw	r3,-25940(gp)
 5081f3c:	00aee014 	movui	r2,48000
 5081f40:	1880031e 	bne	r3,r2,5081f50 <init_audio+0x148>
        AUDIO_SetSampleRate(RATE_ADC48K_DAC48K);
 5081f44:	0009883a 	mov	r4,zero
 5081f48:	50808dc0 	call	50808dc <AUDIO_SetSampleRate>
 5081f4c:	00000806 	br	5081f70 <init_audio+0x168>
    else if (record_sample_rate == 44100)
 5081f50:	d0e6ab17 	ldw	r3,-25940(gp)
 5081f54:	00ab1114 	movui	r2,44100
 5081f58:	1880031e 	bne	r3,r2,5081f68 <init_audio+0x160>
        AUDIO_SetSampleRate(RATE_ADC44K1_DAC44K1);
 5081f5c:	01000184 	movi	r4,6
 5081f60:	50808dc0 	call	50808dc <AUDIO_SetSampleRate>
 5081f64:	00000206 	br	5081f70 <init_audio+0x168>
    else    
        AUDIO_SetSampleRate(RATE_ADC96K_DAC96K);
 5081f68:	01000144 	movi	r4,5
 5081f6c:	50808dc0 	call	50808dc <AUDIO_SetSampleRate>
    //
    AUDIO_InterfaceActive(TRUE);
 5081f70:	01000044 	movi	r4,1
 5081f74:	508038c0 	call	508038c <AUDIO_InterfaceActive>
    
    return bSuccess;             
 5081f78:	e0bffd17 	ldw	r2,-12(fp)
}
 5081f7c:	e037883a 	mov	sp,fp
 5081f80:	dfc00117 	ldw	ra,4(sp)
 5081f84:	df000017 	ldw	fp,0(sp)
 5081f88:	dec00204 	addi	sp,sp,8
 5081f8c:	f800283a 	ret

05081f90 <display_time_elapsed>:


void display_time_elapsed(alt_u32 sample_num){
 5081f90:	defffc04 	addi	sp,sp,-16
 5081f94:	dfc00315 	stw	ra,12(sp)
 5081f98:	df000215 	stw	fp,8(sp)
 5081f9c:	df000204 	addi	fp,sp,8
 5081fa0:	e13fff15 	stw	r4,-4(fp)
    // assume sample rate is 48K
    alt_u32 time;
    time = sample_num * 100 / record_sample_rate;
 5081fa4:	e0bfff17 	ldw	r2,-4(fp)
 5081fa8:	10c01924 	muli	r3,r2,100
 5081fac:	d0a6ab17 	ldw	r2,-25940(gp)
 5081fb0:	1809883a 	mov	r4,r3
 5081fb4:	100b883a 	mov	r5,r2
 5081fb8:	50827c80 	call	50827c8 <__udivsi3>
 5081fbc:	e0bffe15 	stw	r2,-8(fp)
    SEG7_Decimal(time, 0x04);
 5081fc0:	e13ffe17 	ldw	r4,-8(fp)
 5081fc4:	01400104 	movi	r5,4
 5081fc8:	50819340 	call	5081934 <SEG7_Decimal>
}
 5081fcc:	e037883a 	mov	sp,fp
 5081fd0:	dfc00117 	ldw	ra,4(sp)
 5081fd4:	df000017 	ldw	fp,0(sp)
 5081fd8:	dec00204 	addi	sp,sp,8
 5081fdc:	f800283a 	ret

05081fe0 <show_power>:

void show_power(short sample){
 5081fe0:	defffc04 	addi	sp,sp,-16
 5081fe4:	dfc00315 	stw	ra,12(sp)
 5081fe8:	df000215 	stw	fp,8(sp)
 5081fec:	df000204 	addi	fp,sp,8
 5081ff0:	2005883a 	mov	r2,r4
 5081ff4:	e0bfff0d 	sth	r2,-4(fp)
    static alt_u32 sum = 0;
    static alt_u16   cnt = 0;
    alt_u16 power = 0;
 5081ff8:	e03ffe0d 	sth	zero,-8(fp)
    sum += (sample >= 0)?sample:-sample;
 5081ffc:	e0bfff0f 	ldh	r2,-4(fp)
 5082000:	10000216 	blt	r2,zero,508200c <show_power+0x2c>
 5082004:	e0bfff0f 	ldh	r2,-4(fp)
 5082008:	00000206 	br	5082014 <show_power+0x34>
 508200c:	e0bfff0f 	ldh	r2,-4(fp)
 5082010:	0085c83a 	sub	r2,zero,r2
 5082014:	d0e6a917 	ldw	r3,-25948(gp)
 5082018:	10c5883a 	add	r2,r2,r3
 508201c:	d0a6a915 	stw	r2,-25948(gp)
    cnt++;
 5082020:	d0a6aa0b 	ldhu	r2,-25944(gp)
 5082024:	10800044 	addi	r2,r2,1
 5082028:	d0a6aa0d 	sth	r2,-25944(gp)
    if (cnt == 32){
 508202c:	d0a6aa0b 	ldhu	r2,-25944(gp)
 5082030:	10bfffcc 	andi	r2,r2,65535
 5082034:	10800818 	cmpnei	r2,r2,32
 5082038:	1000091e 	bne	r2,zero,5082060 <show_power+0x80>
        power = sum >> 13;
 508203c:	d0a6a917 	ldw	r2,-25948(gp)
 5082040:	1004d37a 	srli	r2,r2,13
 5082044:	e0bffe0d 	sth	r2,-8(fp)
        LED_LightCount(power); 
 5082048:	e0bffe0b 	ldhu	r2,-8(fp)
 508204c:	10803fcc 	andi	r2,r2,255
 5082050:	1009883a 	mov	r4,r2
 5082054:	50816d00 	call	50816d0 <LED_LightCount>
        sum = 0;
 5082058:	d026a915 	stw	zero,-25948(gp)
        cnt = 0;
 508205c:	d026aa0d 	sth	zero,-25944(gp)
    }
}
 5082060:	e037883a 	mov	sp,fp
 5082064:	dfc00117 	ldw	ra,4(sp)
 5082068:	df000017 	ldw	fp,0(sp)
 508206c:	dec00204 	addi	sp,sp,8
 5082070:	f800283a 	ret

05082074 <init>:


bool init(void){
 5082074:	defffd04 	addi	sp,sp,-12
 5082078:	dfc00215 	stw	ra,8(sp)
 508207c:	df000115 	stw	fp,4(sp)
 5082080:	df000104 	addi	fp,sp,4
    bool bSuccess = TRUE;
 5082084:	00800044 	movi	r2,1
 5082088:	e0bfff15 	stw	r2,-4(fp)
    
    SEG7_Clear();
 508208c:	50817400 	call	5081740 <SEG7_Clear>


    SEG7_Decimal(0x00000000, 0x00);
 5082090:	0009883a 	mov	r4,zero
 5082094:	000b883a 	mov	r5,zero
 5082098:	50819340 	call	5081934 <SEG7_Decimal>

    // prepare    
    if (!AUDIO_Init()){
 508209c:	50802040 	call	5080204 <AUDIO_Init>
 50820a0:	1000041e 	bne	r2,zero,50820b4 <init+0x40>

        printf("Audio Init Error\r\n");
 50820a4:	01014274 	movhi	r4,1289
 50820a8:	2139f704 	addi	r4,r4,-6180
 50820ac:	50828c40 	call	50828c4 <puts>
        bSuccess = FALSE;
 50820b0:	e03fff15 	stw	zero,-4(fp)
    }
    
        
    return bSuccess;
 50820b4:	e0bfff17 	ldw	r2,-4(fp)
}
 50820b8:	e037883a 	mov	sp,fp
 50820bc:	dfc00117 	ldw	ra,4(sp)
 50820c0:	df000017 	ldw	fp,0(sp)
 50820c4:	dec00204 	addi	sp,sp,8
 50820c8:	f800283a 	ret

050820cc <dump_record_data>:

void dump_record_data(alt_u32 *pData, alt_u32 len){
 50820cc:	defff804 	addi	sp,sp,-32
 50820d0:	dfc00715 	stw	ra,28(sp)
 50820d4:	df000615 	stw	fp,24(sp)
 50820d8:	df000604 	addi	fp,sp,24
 50820dc:	e13ffe15 	stw	r4,-8(fp)
 50820e0:	e17fff15 	stw	r5,-4(fp)
    short sample_l, sample_r, sample_max = 0;
 50820e4:	e03ffa0d 	sth	zero,-24(fp)
    alt_u32 data;
    int i;
    //return ;
    for(i=0;i<len;i++){
 50820e8:	e03ffb15 	stw	zero,-20(fp)
 50820ec:	00002e06 	br	50821a8 <dump_record_data+0xdc>
        data = *pData++;
 50820f0:	e0bffe17 	ldw	r2,-8(fp)
 50820f4:	10800017 	ldw	r2,0(r2)
 50820f8:	e0bffc15 	stw	r2,-16(fp)
 50820fc:	e0bffe17 	ldw	r2,-8(fp)
 5082100:	10800104 	addi	r2,r2,4
 5082104:	e0bffe15 	stw	r2,-8(fp)
        sample_l = (short)((data >> 16) & 0xFFFF); 
 5082108:	e0bffc17 	ldw	r2,-16(fp)
 508210c:	1004d43a 	srli	r2,r2,16
 5082110:	e0bffd0d 	sth	r2,-12(fp)
        sample_r = (short)(data & 0xFFFF);
 5082114:	e0bffc17 	ldw	r2,-16(fp)
 5082118:	e0bffd8d 	sth	r2,-10(fp)
        //printf("[%d]%d/%d\n", i, sample_l, sample_r);
        if (sample_l > 0 && sample_max <  sample_l)
 508211c:	e0bffd0f 	ldh	r2,-12(fp)
 5082120:	0080050e 	bge	zero,r2,5082138 <dump_record_data+0x6c>
 5082124:	e0fffa0f 	ldh	r3,-24(fp)
 5082128:	e0bffd0f 	ldh	r2,-12(fp)
 508212c:	1880020e 	bge	r3,r2,5082138 <dump_record_data+0x6c>
            sample_max = sample_l;
 5082130:	e0bffd0b 	ldhu	r2,-12(fp)
 5082134:	e0bffa0d 	sth	r2,-24(fp)
        if (sample_l < 0 && sample_max <  -sample_l)
 5082138:	e0bffd0f 	ldh	r2,-12(fp)
 508213c:	1000070e 	bge	r2,zero,508215c <dump_record_data+0x90>
 5082140:	e0fffa0f 	ldh	r3,-24(fp)
 5082144:	e0bffd0f 	ldh	r2,-12(fp)
 5082148:	0085c83a 	sub	r2,zero,r2
 508214c:	1880030e 	bge	r3,r2,508215c <dump_record_data+0x90>
            sample_max = -sample_l;
 5082150:	e0bffd0b 	ldhu	r2,-12(fp)
 5082154:	0085c83a 	sub	r2,zero,r2
 5082158:	e0bffa0d 	sth	r2,-24(fp)
        if (sample_r > 0 && sample_max <  sample_r)
 508215c:	e0bffd8f 	ldh	r2,-10(fp)
 5082160:	0080050e 	bge	zero,r2,5082178 <dump_record_data+0xac>
 5082164:	e0fffa0f 	ldh	r3,-24(fp)
 5082168:	e0bffd8f 	ldh	r2,-10(fp)
 508216c:	1880020e 	bge	r3,r2,5082178 <dump_record_data+0xac>
            sample_max = sample_r;
 5082170:	e0bffd8b 	ldhu	r2,-10(fp)
 5082174:	e0bffa0d 	sth	r2,-24(fp)
        if (sample_r < 0 && sample_max <  -sample_r)
 5082178:	e0bffd8f 	ldh	r2,-10(fp)
 508217c:	1000070e 	bge	r2,zero,508219c <dump_record_data+0xd0>
 5082180:	e0fffa0f 	ldh	r3,-24(fp)
 5082184:	e0bffd8f 	ldh	r2,-10(fp)
 5082188:	0085c83a 	sub	r2,zero,r2
 508218c:	1880030e 	bge	r3,r2,508219c <dump_record_data+0xd0>
            sample_max = -sample_r;
 5082190:	e0bffd8b 	ldhu	r2,-10(fp)
 5082194:	0085c83a 	sub	r2,zero,r2
 5082198:	e0bffa0d 	sth	r2,-24(fp)
void dump_record_data(alt_u32 *pData, alt_u32 len){
    short sample_l, sample_r, sample_max = 0;
    alt_u32 data;
    int i;
    //return ;
    for(i=0;i<len;i++){
 508219c:	e0bffb17 	ldw	r2,-20(fp)
 50821a0:	10800044 	addi	r2,r2,1
 50821a4:	e0bffb15 	stw	r2,-20(fp)
 50821a8:	e0fffb17 	ldw	r3,-20(fp)
 50821ac:	e0bfff17 	ldw	r2,-4(fp)
 50821b0:	18bfcf36 	bltu	r3,r2,50820f0 <dump_record_data+0x24>
        if (sample_r > 0 && sample_max <  sample_r)
            sample_max = sample_r;
        if (sample_r < 0 && sample_max <  -sample_r)
            sample_max = -sample_r;
    }
    printf("max=%d\n", sample_max);
 50821b4:	e0bffa0f 	ldh	r2,-24(fp)
 50821b8:	01014274 	movhi	r4,1289
 50821bc:	2139fc04 	addi	r4,r4,-6160
 50821c0:	100b883a 	mov	r5,r2
 50821c4:	50828040 	call	5082804 <printf>
}
 50821c8:	e037883a 	mov	sp,fp
 50821cc:	dfc00117 	ldw	ra,4(sp)
 50821d0:	df000017 	ldw	fp,0(sp)
 50821d4:	dec00204 	addi	sp,sp,8
 50821d8:	f800283a 	ret

050821dc <show_menu>:
    "  LED:  Display audio singal strength.\n",
    "  SEG7: Display time elapsed for playing/recording.\n"
    "\n\n"
};

void show_menu(void){
 50821dc:	defffd04 	addi	sp,sp,-12
 50821e0:	dfc00215 	stw	ra,8(sp)
 50821e4:	df000115 	stw	fp,4(sp)
 50821e8:	df000104 	addi	fp,sp,4
    int i;
    for(i=0;i<sizeof(szMenu)/sizeof(szMenu[0]);i++)
 50821ec:	e03fff15 	stw	zero,-4(fp)
 50821f0:	00000a06 	br	508221c <show_menu+0x40>
        printf(szMenu[i]);
 50821f4:	e0bfff17 	ldw	r2,-4(fp)
 50821f8:	100691fa 	slli	r3,r2,7
 50821fc:	00814274 	movhi	r2,1289
 5082200:	10b9fe04 	addi	r2,r2,-6152
 5082204:	1885883a 	add	r2,r3,r2
 5082208:	1009883a 	mov	r4,r2
 508220c:	50828040 	call	5082804 <printf>
    "\n\n"
};

void show_menu(void){
    int i;
    for(i=0;i<sizeof(szMenu)/sizeof(szMenu[0]);i++)
 5082210:	e0bfff17 	ldw	r2,-4(fp)
 5082214:	10800044 	addi	r2,r2,1
 5082218:	e0bfff15 	stw	r2,-4(fp)
 508221c:	e0bfff17 	ldw	r2,-4(fp)
 5082220:	10800430 	cmpltui	r2,r2,16
 5082224:	103ff31e 	bne	r2,zero,50821f4 <show_menu+0x18>
        printf(szMenu[i]);
}
 5082228:	e037883a 	mov	sp,fp
 508222c:	dfc00117 	ldw	ra,4(sp)
 5082230:	df000017 	ldw	fp,0(sp)
 5082234:	dec00204 	addi	sp,sp,8
 5082238:	f800283a 	ret

0508223c <main>:

int main()
{
 508223c:	deffeb04 	addi	sp,sp,-84
 5082240:	dfc01415 	stw	ra,80(sp)
 5082244:	df001315 	stw	fp,76(sp)
 5082248:	df001304 	addi	fp,sp,76
    typedef enum{
        ST_STANDY,
        ST_RECODING,
        ST_PLAYING
    }STATE;
    STATE state = ST_STANDY;
 508224c:	e03fed15 	stw	zero,-76(fp)
    volatile alt_u32 button_mask=0;
 5082250:	e03ffe15 	stw	zero,-8(fp)
    bool bRecordPressed, bPlayPressed, bError = FALSE;
 5082254:	e03fee15 	stw	zero,-72(fp)
    alt_u32 *pBuf, *pPlaying, *pRecording, RecordLen, PlayLen, data, try_cnt, buf_sample_size;
    alt_u16 ch_right, ch_left;

    
    printf("\nHello World\n");
 5082258:	01014274 	movhi	r4,1289
 508225c:	213bfe04 	addi	r4,r4,-4104
 5082260:	50828c40 	call	50828c4 <puts>

    show_menu();    
 5082264:	50821dc0 	call	50821dc <show_menu>
    if (!init())
 5082268:	50820740 	call	5082074 <init>
 508226c:	1000021e 	bne	r2,zero,5082278 <main+0x3c>
        return 0;
 5082270:	0005883a 	mov	r2,zero
 5082274:	00010706 	br	5082694 <main+0x458>
        
    
#ifdef USE_SDRAM_FOR_DATA
    pBuf = (alt_u32 *)SDRAM_BASE;
 5082278:	e03ff615 	stw	zero,-40(fp)
    buf_sample_size = SDRAM_SPAN/sizeof(alt_u32);
 508227c:	00804034 	movhi	r2,256
 5082280:	e0bff715 	stw	r2,-36(fp)
        LCD_TextOut("malloc fail\n\n");
        printf("malloc fail\r\n");
        return 0;
    }
#endif    
    button_monitor_start(&button_mask);  // button IRQ
 5082284:	e0bffe04 	addi	r2,fp,-8
 5082288:	1009883a 	mov	r4,r2
 508228c:	5081d840 	call	5081d84 <button_monitor_start>
    printf("ready\n");
 5082290:	01014274 	movhi	r4,1289
 5082294:	213c0204 	addi	r4,r4,-4088
 5082298:	50828c40 	call	50828c4 <puts>
    
    
    // test
    record_sample_rate = ui_get_sample_rate(); 
 508229c:	5081c7c0 	call	5081c7c <ui_get_sample_rate>
 50822a0:	d0a6ab15 	stw	r2,-25940(gp)
    RecordLen = buf_sample_size;
 50822a4:	e0bff717 	ldw	r2,-36(fp)
 50822a8:	e0bff115 	stw	r2,-60(fp)
 50822ac:	00000106 	br	50822b4 <main+0x78>
                    //printf("[%d] %d/%d\n", PlayLen, (short)((data >> 16) & 0xFFFF), (short)(data & 0xFFFF));
                }
                display_time_elapsed(PlayLen);     
            }
        }        
    }
 50822b0:	0001883a 	nop
    //
    
    // infinite loop
    while(1){
        // 
        bRecordPressed = (button_mask & RECORD_BUTTON)?TRUE:FALSE;
 50822b4:	e0bffe17 	ldw	r2,-8(fp)
 50822b8:	1080020c 	andi	r2,r2,8
 50822bc:	1004c03a 	cmpne	r2,r2,zero
 50822c0:	10803fcc 	andi	r2,r2,255
 50822c4:	e0bff815 	stw	r2,-32(fp)
        bPlayPressed = (button_mask & PLAY_BUTTON)?TRUE:FALSE;
 50822c8:	e0bffe17 	ldw	r2,-8(fp)
 50822cc:	1080010c 	andi	r2,r2,4
 50822d0:	1004c03a 	cmpne	r2,r2,zero
 50822d4:	10803fcc 	andi	r2,r2,255
 50822d8:	e0bff915 	stw	r2,-28(fp)
        if (bPlayPressed || bRecordPressed) 
 50822dc:	e0bff917 	ldw	r2,-28(fp)
 50822e0:	1000021e 	bne	r2,zero,50822ec <main+0xb0>
 50822e4:	e0bff817 	ldw	r2,-32(fp)
 50822e8:	10000126 	beq	r2,zero,50822f0 <main+0xb4>
            button_mask = 0;
 50822ec:	e03ffe15 	stw	zero,-8(fp)
        if (state == ST_STANDY){
 50822f0:	e0bfed17 	ldw	r2,-76(fp)
 50822f4:	1000431e 	bne	r2,zero,5082404 <main+0x1c8>
            if (bRecordPressed){
 50822f8:	e0bff817 	ldw	r2,-32(fp)
 50822fc:	10002826 	beq	r2,zero,50823a0 <main+0x164>
                bool bMicRecord;
                record_sample_rate = ui_get_sample_rate();
 5082300:	5081c7c0 	call	5081c7c <ui_get_sample_rate>
 5082304:	d0a6ab15 	stw	r2,-25940(gp)
                bMicRecord = ui_is_mic_record();
 5082308:	5081bc80 	call	5081bc8 <ui_is_mic_record>
 508230c:	e0bffa15 	stw	r2,-24(fp)
                AUDIO_FifoClear();
 5082310:	5080f080 	call	5080f08 <AUDIO_FifoClear>
                init_audio(bMicRecord?MIC_RECORD:LINEIN_RECORD);
 5082314:	e0bffa17 	ldw	r2,-24(fp)
 5082318:	1005003a 	cmpeq	r2,r2,zero
 508231c:	10803fcc 	andi	r2,r2,255
 5082320:	1009883a 	mov	r4,r2
 5082324:	5081e080 	call	5081e08 <init_audio>
                AUDIO_FifoClear();
 5082328:	5080f080 	call	5080f08 <AUDIO_FifoClear>
                state = ST_RECODING;
 508232c:	00800044 	movi	r2,1
 5082330:	e0bfed15 	stw	r2,-76(fp)
                if (bMicRecord){
 5082334:	e0bffa17 	ldw	r2,-24(fp)
 5082338:	10001026 	beq	r2,zero,508237c <main+0x140>
                    bool bMicBoost = ui_is_mic_boost();
 508233c:	5081c040 	call	5081c04 <ui_is_mic_boost>
 5082340:	e0bffb15 	stw	r2,-20(fp)
                    printf("MIC %srecording (sample rate = %d)...\r\n", bMicBoost?"Boost ":"", record_sample_rate);
 5082344:	e0bffb17 	ldw	r2,-20(fp)
 5082348:	10000326 	beq	r2,zero,5082358 <main+0x11c>
 508234c:	00814274 	movhi	r2,1289
 5082350:	10bc0404 	addi	r2,r2,-4080
 5082354:	00000206 	br	5082360 <main+0x124>
 5082358:	00814274 	movhi	r2,1289
 508235c:	10bc0604 	addi	r2,r2,-4072
 5082360:	d0e6ab17 	ldw	r3,-25940(gp)
 5082364:	01014274 	movhi	r4,1289
 5082368:	213c0704 	addi	r4,r4,-4068
 508236c:	100b883a 	mov	r5,r2
 5082370:	180d883a 	mov	r6,r3
 5082374:	50828040 	call	5082804 <printf>
 5082378:	00000506 	br	5082390 <main+0x154>

                }else{
                    printf("LINE-IN recording (sample rate = %d)...\r\n", record_sample_rate);
 508237c:	d0a6ab17 	ldw	r2,-25940(gp)
 5082380:	01014274 	movhi	r4,1289
 5082384:	213c1104 	addi	r4,r4,-4028
 5082388:	100b883a 	mov	r5,r2
 508238c:	50828040 	call	5082804 <printf>


                }                    
                pRecording = pBuf;
 5082390:	e0bff617 	ldw	r2,-40(fp)
 5082394:	e0bff015 	stw	r2,-64(fp)
                RecordLen = 0;
 5082398:	e03ff115 	stw	zero,-60(fp)
 508239c:	00001706 	br	50823fc <main+0x1c0>
            }else if (bPlayPressed){
 50823a0:	e0bff917 	ldw	r2,-28(fp)
 50823a4:	10001526 	beq	r2,zero,50823fc <main+0x1c0>
                if (RecordLen == 0){
 50823a8:	e0bff117 	ldw	r2,-60(fp)
 50823ac:	1000041e 	bne	r2,zero,50823c0 <main+0x184>
                    printf("Please record before play audio\r\n");
 50823b0:	01014274 	movhi	r4,1289
 50823b4:	213c1c04 	addi	r4,r4,-3984
 50823b8:	50828c40 	call	50828c4 <puts>
 50823bc:	00000f06 	br	50823fc <main+0x1c0>

                }else{
                    bool bZeroCross = ui_is_dac_zero_cross();
 50823c0:	5081c400 	call	5081c40 <ui_is_dac_zero_cross>
 50823c4:	e0bffc15 	stw	r2,-16(fp)
                    AUDIO_FifoClear();
 50823c8:	5080f080 	call	5080f08 <AUDIO_FifoClear>
                    init_audio(LINEOUT_PLAY);
 50823cc:	01000084 	movi	r4,2
 50823d0:	5081e080 	call	5081e08 <init_audio>
                    state = ST_PLAYING;
 50823d4:	00800084 	movi	r2,2
 50823d8:	e0bfed15 	stw	r2,-76(fp)
                    printf("playing (sample rate = %d)...\r\n", record_sample_rate);
 50823dc:	d0a6ab17 	ldw	r2,-25940(gp)
 50823e0:	01014274 	movhi	r4,1289
 50823e4:	213c2504 	addi	r4,r4,-3948
 50823e8:	100b883a 	mov	r5,r2
 50823ec:	50828040 	call	5082804 <printf>


                    pPlaying = pBuf;
 50823f0:	e0bff617 	ldw	r2,-40(fp)
 50823f4:	e0bfef15 	stw	r2,-68(fp)
                    PlayLen = 0;
 50823f8:	e03ff215 	stw	zero,-56(fp)
                }  
            }
            bError = FALSE;
 50823fc:	e03fee15 	stw	zero,-72(fp)
                    //printf("[%d] %d/%d\n", PlayLen, (short)((data >> 16) & 0xFFFF), (short)(data & 0xFFFF));
                }
                display_time_elapsed(PlayLen);     
            }
        }        
    }
 5082400:	003fab06 	br	50822b0 <main+0x74>
                    pPlaying = pBuf;
                    PlayLen = 0;
                }  
            }
            bError = FALSE;
        }else if (state == ST_RECODING){
 5082404:	e0bfed17 	ldw	r2,-76(fp)
 5082408:	10800058 	cmpnei	r2,r2,1
 508240c:	10004b1e 	bne	r2,zero,508253c <main+0x300>
            if (bRecordPressed || (RecordLen >= buf_sample_size) || bError){
 5082410:	e0bff817 	ldw	r2,-32(fp)
 5082414:	1000051e 	bne	r2,zero,508242c <main+0x1f0>
 5082418:	e0fff117 	ldw	r3,-60(fp)
 508241c:	e0bff717 	ldw	r2,-36(fp)
 5082420:	1880022e 	bgeu	r3,r2,508242c <main+0x1f0>
 5082424:	e0bfee17 	ldw	r2,-72(fp)
 5082428:	10000b26 	beq	r2,zero,5082458 <main+0x21c>
                // stop record
                printf("record %d samples\n", (int)RecordLen);
 508242c:	e0bff117 	ldw	r2,-60(fp)
 5082430:	01014274 	movhi	r4,1289
 5082434:	213c2d04 	addi	r4,r4,-3916
 5082438:	100b883a 	mov	r5,r2
 508243c:	50828040 	call	5082804 <printf>


                state = ST_STANDY;
 5082440:	e03fed15 	stw	zero,-76(fp)
                LED_AllOff();
 5082444:	50816a40 	call	50816a4 <LED_AllOff>
                dump_record_data(pBuf, RecordLen);
 5082448:	e13ff617 	ldw	r4,-40(fp)
 508244c:	e17ff117 	ldw	r5,-60(fp)
 5082450:	50820cc0 	call	50820cc <dump_record_data>
                    //printf("[%d] %d/%d\n", PlayLen, (short)((data >> 16) & 0xFFFF), (short)(data & 0xFFFF));
                }
                display_time_elapsed(PlayLen);     
            }
        }        
    }
 5082454:	003f9606 	br	50822b0 <main+0x74>
                LED_AllOff();
                dump_record_data(pBuf, RecordLen);
                
            }else{
                // continue recoding
                int i = 0;
 5082458:	e03ff415 	stw	zero,-48(fp)
                while ((i < RECORD_BLOCK_SIZE) && (RecordLen < buf_sample_size)){
 508245c:	00002e06 	br	5082518 <main+0x2dc>
                    try_cnt = 0;
 5082460:	e03ff315 	stw	zero,-52(fp)
                    while (!AUDIO_AdcFifoNotEmpty() && try_cnt < MAX_TRY_CNT){ // wait while empty
 5082464:	00000306 	br	5082474 <main+0x238>
                        try_cnt++;    
 5082468:	e0bff317 	ldw	r2,-52(fp)
 508246c:	10800044 	addi	r2,r2,1
 5082470:	e0bff315 	stw	r2,-52(fp)
            }else{
                // continue recoding
                int i = 0;
                while ((i < RECORD_BLOCK_SIZE) && (RecordLen < buf_sample_size)){
                    try_cnt = 0;
                    while (!AUDIO_AdcFifoNotEmpty() && try_cnt < MAX_TRY_CNT){ // wait while empty
 5082474:	5080e780 	call	5080e78 <AUDIO_AdcFifoNotEmpty>
 5082478:	1000031e 	bne	r2,zero,5082488 <main+0x24c>
 508247c:	e0bff317 	ldw	r2,-52(fp)
 5082480:	10810030 	cmpltui	r2,r2,1024
 5082484:	103ff81e 	bne	r2,zero,5082468 <main+0x22c>
                        try_cnt++;    
                    }    
                    if (try_cnt >= MAX_TRY_CNT){
 5082488:	e0bff317 	ldw	r2,-52(fp)
 508248c:	10810030 	cmpltui	r2,r2,1024
 5082490:	1000031e 	bne	r2,zero,50824a0 <main+0x264>
                        bError = TRUE;
 5082494:	00800044 	movi	r2,1
 5082498:	e0bfee15 	stw	r2,-72(fp)
                        break;
 508249c:	00002406 	br	5082530 <main+0x2f4>
                    }    
                    AUDIO_AdcFifoGetData(&ch_left, &ch_right);
 50824a0:	e0ffff84 	addi	r3,fp,-2
 50824a4:	e0bfff04 	addi	r2,fp,-4
 50824a8:	1809883a 	mov	r4,r3
 50824ac:	100b883a 	mov	r5,r2
 50824b0:	5080eb40 	call	5080eb4 <AUDIO_AdcFifoGetData>
                    data = (ch_left << 16) | ch_right;
 50824b4:	e0bfff8b 	ldhu	r2,-2(fp)
 50824b8:	10bfffcc 	andi	r2,r2,65535
 50824bc:	1006943a 	slli	r3,r2,16
 50824c0:	e0bfff0b 	ldhu	r2,-4(fp)
 50824c4:	10bfffcc 	andi	r2,r2,65535
 50824c8:	1884b03a 	or	r2,r3,r2
 50824cc:	e0bffd15 	stw	r2,-12(fp)
                    *pRecording++ = data;
 50824d0:	e0bff017 	ldw	r2,-64(fp)
 50824d4:	e0fffd17 	ldw	r3,-12(fp)
 50824d8:	10c00015 	stw	r3,0(r2)
 50824dc:	e0bff017 	ldw	r2,-64(fp)
 50824e0:	10800104 	addi	r2,r2,4
 50824e4:	e0bff015 	stw	r2,-64(fp)
                    RecordLen++;
 50824e8:	e0bff117 	ldw	r2,-60(fp)
 50824ec:	10800044 	addi	r2,r2,1
 50824f0:	e0bff115 	stw	r2,-60(fp)
                    i++;
 50824f4:	e0bff417 	ldw	r2,-48(fp)
 50824f8:	10800044 	addi	r2,r2,1
 50824fc:	e0bff415 	stw	r2,-48(fp)
                    show_power(data & 0xFFFF);
 5082500:	e0bffd17 	ldw	r2,-12(fp)
 5082504:	10bfffcc 	andi	r2,r2,65535
 5082508:	10a0001c 	xori	r2,r2,32768
 508250c:	10a00004 	addi	r2,r2,-32768
 5082510:	1009883a 	mov	r4,r2
 5082514:	5081fe00 	call	5081fe0 <show_power>
                dump_record_data(pBuf, RecordLen);
                
            }else{
                // continue recoding
                int i = 0;
                while ((i < RECORD_BLOCK_SIZE) && (RecordLen < buf_sample_size)){
 5082518:	e0bff417 	ldw	r2,-48(fp)
 508251c:	10803e88 	cmpgei	r2,r2,250
 5082520:	1000031e 	bne	r2,zero,5082530 <main+0x2f4>
 5082524:	e0fff117 	ldw	r3,-60(fp)
 5082528:	e0bff717 	ldw	r2,-36(fp)
 508252c:	18bfcc36 	bltu	r3,r2,5082460 <main+0x224>
                    *pRecording++ = data;
                    RecordLen++;
                    i++;
                    show_power(data & 0xFFFF);
                }  // while
                display_time_elapsed(RecordLen);    
 5082530:	e13ff117 	ldw	r4,-60(fp)
 5082534:	5081f900 	call	5081f90 <display_time_elapsed>
 5082538:	00005506 	br	5082690 <main+0x454>
            }     
        }else if (state == ST_PLAYING){
 508253c:	e0bfed17 	ldw	r2,-76(fp)
 5082540:	10800098 	cmpnei	r2,r2,2
 5082544:	103f5a1e 	bne	r2,zero,50822b0 <main+0x74>
            if (bPlayPressed || (PlayLen >= RecordLen) || bError){
 5082548:	e0bff917 	ldw	r2,-28(fp)
 508254c:	1000051e 	bne	r2,zero,5082564 <main+0x328>
 5082550:	e0fff217 	ldw	r3,-56(fp)
 5082554:	e0bff117 	ldw	r2,-60(fp)
 5082558:	1880022e 	bgeu	r3,r2,5082564 <main+0x328>
 508255c:	e0bfee17 	ldw	r2,-72(fp)
 5082560:	10000e26 	beq	r2,zero,508259c <main+0x360>
                // stop playing
                printf("Play Stop %s\r\n", bError?"(Error)":"");
 5082564:	e0bfee17 	ldw	r2,-72(fp)
 5082568:	10000326 	beq	r2,zero,5082578 <main+0x33c>
 508256c:	00814274 	movhi	r2,1289
 5082570:	10bc3204 	addi	r2,r2,-3896
 5082574:	00000206 	br	5082580 <main+0x344>
 5082578:	00814274 	movhi	r2,1289
 508257c:	10bc0604 	addi	r2,r2,-4072
 5082580:	01014274 	movhi	r4,1289
 5082584:	213c3404 	addi	r4,r4,-3888
 5082588:	100b883a 	mov	r5,r2
 508258c:	50828040 	call	5082804 <printf>

                state = ST_STANDY;
 5082590:	e03fed15 	stw	zero,-76(fp)
                LED_AllOff();
 5082594:	50816a40 	call	50816a4 <LED_AllOff>
 5082598:	00003d06 	br	5082690 <main+0x454>
            }else{
                // continue playing
                int i = 0;
 508259c:	e03ff515 	stw	zero,-44(fp)
                while ((i < PLAY_BLOCK_SIZE) && (PlayLen < RecordLen)){
 50825a0:	00003206 	br	508266c <main+0x430>
                    try_cnt = 0;                
 50825a4:	e03ff315 	stw	zero,-52(fp)
                    while (!AUDIO_DacFifoNotFull() && try_cnt < MAX_TRY_CNT){  // wait while full
 50825a8:	00000306 	br	50825b8 <main+0x37c>
                        try_cnt++;
 50825ac:	e0bff317 	ldw	r2,-52(fp)
 50825b0:	10800044 	addi	r2,r2,1
 50825b4:	e0bff315 	stw	r2,-52(fp)
            }else{
                // continue playing
                int i = 0;
                while ((i < PLAY_BLOCK_SIZE) && (PlayLen < RecordLen)){
                    try_cnt = 0;                
                    while (!AUDIO_DacFifoNotFull() && try_cnt < MAX_TRY_CNT){  // wait while full
 50825b8:	5080df00 	call	5080df0 <AUDIO_DacFifoNotFull>
 50825bc:	1000031e 	bne	r2,zero,50825cc <main+0x390>
 50825c0:	e0bff317 	ldw	r2,-52(fp)
 50825c4:	10810030 	cmpltui	r2,r2,1024
 50825c8:	103ff81e 	bne	r2,zero,50825ac <main+0x370>
                        try_cnt++;
                    }    
                    if (try_cnt >= MAX_TRY_CNT){
 50825cc:	e0bff317 	ldw	r2,-52(fp)
 50825d0:	10810030 	cmpltui	r2,r2,1024
 50825d4:	1000031e 	bne	r2,zero,50825e4 <main+0x3a8>
                        bError = TRUE;
 50825d8:	00800044 	movi	r2,1
 50825dc:	e0bfee15 	stw	r2,-72(fp)
                        break;
 50825e0:	00002806 	br	5082684 <main+0x448>
                    }    
                    data = *pPlaying++;
 50825e4:	e0bfef17 	ldw	r2,-68(fp)
 50825e8:	10800017 	ldw	r2,0(r2)
 50825ec:	e0bffd15 	stw	r2,-12(fp)
 50825f0:	e0bfef17 	ldw	r2,-68(fp)
 50825f4:	10800104 	addi	r2,r2,4
 50825f8:	e0bfef15 	stw	r2,-68(fp)
                   
                    //data = 0;
                    ch_left = data >> 16;
 50825fc:	e0bffd17 	ldw	r2,-12(fp)
 5082600:	1004d43a 	srli	r2,r2,16
 5082604:	e0bfff8d 	sth	r2,-2(fp)
                    ch_right = data & 0xFFFF;
 5082608:	e0bffd17 	ldw	r2,-12(fp)
 508260c:	e0bfff0d 	sth	r2,-4(fp)
                    AUDIO_DacFifoSetData(ch_left, ch_right);  
 5082610:	e0bfff8b 	ldhu	r2,-2(fp)
 5082614:	10ffffcc 	andi	r3,r2,65535
 5082618:	18e0001c 	xori	r3,r3,32768
 508261c:	18e00004 	addi	r3,r3,-32768
 5082620:	e0bfff0b 	ldhu	r2,-4(fp)
 5082624:	10bfffcc 	andi	r2,r2,65535
 5082628:	10a0001c 	xori	r2,r2,32768
 508262c:	10a00004 	addi	r2,r2,-32768
 5082630:	1809883a 	mov	r4,r3
 5082634:	100b883a 	mov	r5,r2
 5082638:	5080e2c0 	call	5080e2c <AUDIO_DacFifoSetData>
                    i++;
 508263c:	e0bff517 	ldw	r2,-44(fp)
 5082640:	10800044 	addi	r2,r2,1
 5082644:	e0bff515 	stw	r2,-44(fp)
                    PlayLen++;
 5082648:	e0bff217 	ldw	r2,-56(fp)
 508264c:	10800044 	addi	r2,r2,1
 5082650:	e0bff215 	stw	r2,-56(fp)
                    show_power(data & 0xFFFF);
 5082654:	e0bffd17 	ldw	r2,-12(fp)
 5082658:	10bfffcc 	andi	r2,r2,65535
 508265c:	10a0001c 	xori	r2,r2,32768
 5082660:	10a00004 	addi	r2,r2,-32768
 5082664:	1009883a 	mov	r4,r2
 5082668:	5081fe00 	call	5081fe0 <show_power>
                state = ST_STANDY;
                LED_AllOff();
            }else{
                // continue playing
                int i = 0;
                while ((i < PLAY_BLOCK_SIZE) && (PlayLen < RecordLen)){
 508266c:	e0bff517 	ldw	r2,-44(fp)
 5082670:	10803e88 	cmpgei	r2,r2,250
 5082674:	1000031e 	bne	r2,zero,5082684 <main+0x448>
 5082678:	e0fff217 	ldw	r3,-56(fp)
 508267c:	e0bff117 	ldw	r2,-60(fp)
 5082680:	18bfc836 	bltu	r3,r2,50825a4 <main+0x368>
                    i++;
                    PlayLen++;
                    show_power(data & 0xFFFF);
                    //printf("[%d] %d/%d\n", PlayLen, (short)((data >> 16) & 0xFFFF), (short)(data & 0xFFFF));
                }
                display_time_elapsed(PlayLen);     
 5082684:	e13ff217 	ldw	r4,-56(fp)
 5082688:	5081f900 	call	5081f90 <display_time_elapsed>
            }
        }        
    }
 508268c:	003f0806 	br	50822b0 <main+0x74>
 5082690:	003f0706 	br	50822b0 <main+0x74>
    
}
 5082694:	e037883a 	mov	sp,fp
 5082698:	dfc00117 	ldw	ra,4(sp)
 508269c:	df000017 	ldw	fp,0(sp)
 50826a0:	dec00204 	addi	sp,sp,8
 50826a4:	f800283a 	ret

050826a8 <udivmodsi4>:
 50826a8:	2005883a 	mov	r2,r4
 50826ac:	2900182e 	bgeu	r5,r4,5082710 <udivmodsi4+0x68>
 50826b0:	28001716 	blt	r5,zero,5082710 <udivmodsi4+0x68>
 50826b4:	01000804 	movi	r4,32
 50826b8:	00c00044 	movi	r3,1
 50826bc:	00000206 	br	50826c8 <udivmodsi4+0x20>
 50826c0:	20001126 	beq	r4,zero,5082708 <udivmodsi4+0x60>
 50826c4:	28000516 	blt	r5,zero,50826dc <udivmodsi4+0x34>
 50826c8:	294b883a 	add	r5,r5,r5
 50826cc:	213fffc4 	addi	r4,r4,-1
 50826d0:	18c7883a 	add	r3,r3,r3
 50826d4:	28bffa36 	bltu	r5,r2,50826c0 <udivmodsi4+0x18>
 50826d8:	18000b26 	beq	r3,zero,5082708 <udivmodsi4+0x60>
 50826dc:	0009883a 	mov	r4,zero
 50826e0:	11400236 	bltu	r2,r5,50826ec <udivmodsi4+0x44>
 50826e4:	1145c83a 	sub	r2,r2,r5
 50826e8:	20c8b03a 	or	r4,r4,r3
 50826ec:	1806d07a 	srli	r3,r3,1
 50826f0:	280ad07a 	srli	r5,r5,1
 50826f4:	183ffa1e 	bne	r3,zero,50826e0 <udivmodsi4+0x38>
 50826f8:	3000021e 	bne	r6,zero,5082704 <udivmodsi4+0x5c>
 50826fc:	2005883a 	mov	r2,r4
 5082700:	f800283a 	ret
 5082704:	f800283a 	ret
 5082708:	0009883a 	mov	r4,zero
 508270c:	003ffa06 	br	50826f8 <udivmodsi4+0x50>
 5082710:	00c00044 	movi	r3,1
 5082714:	0009883a 	mov	r4,zero
 5082718:	003ff106 	br	50826e0 <udivmodsi4+0x38>

0508271c <__divsi3>:
 508271c:	defffe04 	addi	sp,sp,-8
 5082720:	dfc00115 	stw	ra,4(sp)
 5082724:	dc000015 	stw	r16,0(sp)
 5082728:	20000a16 	blt	r4,zero,5082754 <__divsi3+0x38>
 508272c:	0021883a 	mov	r16,zero
 5082730:	28000b16 	blt	r5,zero,5082760 <__divsi3+0x44>
 5082734:	000d883a 	mov	r6,zero
 5082738:	50826a80 	call	50826a8 <udivmodsi4>
 508273c:	80000126 	beq	r16,zero,5082744 <__divsi3+0x28>
 5082740:	0085c83a 	sub	r2,zero,r2
 5082744:	dfc00117 	ldw	ra,4(sp)
 5082748:	dc000017 	ldw	r16,0(sp)
 508274c:	dec00204 	addi	sp,sp,8
 5082750:	f800283a 	ret
 5082754:	0109c83a 	sub	r4,zero,r4
 5082758:	04000044 	movi	r16,1
 508275c:	283ff50e 	bge	r5,zero,5082734 <__divsi3+0x18>
 5082760:	014bc83a 	sub	r5,zero,r5
 5082764:	8400005c 	xori	r16,r16,1
 5082768:	003ff206 	br	5082734 <__divsi3+0x18>

0508276c <__modsi3>:
 508276c:	deffff04 	addi	sp,sp,-4
 5082770:	dfc00015 	stw	ra,0(sp)
 5082774:	20000516 	blt	r4,zero,508278c <__modsi3+0x20>
 5082778:	28000c16 	blt	r5,zero,50827ac <__modsi3+0x40>
 508277c:	01800044 	movi	r6,1
 5082780:	dfc00017 	ldw	ra,0(sp)
 5082784:	dec00104 	addi	sp,sp,4
 5082788:	50826a81 	jmpi	50826a8 <udivmodsi4>
 508278c:	0109c83a 	sub	r4,zero,r4
 5082790:	28000b16 	blt	r5,zero,50827c0 <__modsi3+0x54>
 5082794:	01800044 	movi	r6,1
 5082798:	50826a80 	call	50826a8 <udivmodsi4>
 508279c:	0085c83a 	sub	r2,zero,r2
 50827a0:	dfc00017 	ldw	ra,0(sp)
 50827a4:	dec00104 	addi	sp,sp,4
 50827a8:	f800283a 	ret
 50827ac:	014bc83a 	sub	r5,zero,r5
 50827b0:	01800044 	movi	r6,1
 50827b4:	dfc00017 	ldw	ra,0(sp)
 50827b8:	dec00104 	addi	sp,sp,4
 50827bc:	50826a81 	jmpi	50826a8 <udivmodsi4>
 50827c0:	014bc83a 	sub	r5,zero,r5
 50827c4:	003ff306 	br	5082794 <__modsi3+0x28>

050827c8 <__udivsi3>:
 50827c8:	000d883a 	mov	r6,zero
 50827cc:	50826a81 	jmpi	50826a8 <udivmodsi4>

050827d0 <__umodsi3>:
 50827d0:	01800044 	movi	r6,1
 50827d4:	50826a81 	jmpi	50826a8 <udivmodsi4>

050827d8 <_printf_r>:
 50827d8:	defffd04 	addi	sp,sp,-12
 50827dc:	dfc00015 	stw	ra,0(sp)
 50827e0:	d9800115 	stw	r6,4(sp)
 50827e4:	d9c00215 	stw	r7,8(sp)
 50827e8:	280d883a 	mov	r6,r5
 50827ec:	21400217 	ldw	r5,8(r4)
 50827f0:	d9c00104 	addi	r7,sp,4
 50827f4:	5082a5c0 	call	5082a5c <___vfprintf_internal_r>
 50827f8:	dfc00017 	ldw	ra,0(sp)
 50827fc:	dec00304 	addi	sp,sp,12
 5082800:	f800283a 	ret

05082804 <printf>:
 5082804:	defffc04 	addi	sp,sp,-16
 5082808:	dfc00015 	stw	ra,0(sp)
 508280c:	d9400115 	stw	r5,4(sp)
 5082810:	d9800215 	stw	r6,8(sp)
 5082814:	d9c00315 	stw	r7,12(sp)
 5082818:	00814274 	movhi	r2,1289
 508281c:	10838c04 	addi	r2,r2,3632
 5082820:	10800017 	ldw	r2,0(r2)
 5082824:	200b883a 	mov	r5,r4
 5082828:	d9800104 	addi	r6,sp,4
 508282c:	11000217 	ldw	r4,8(r2)
 5082830:	50848540 	call	5084854 <__vfprintf_internal>
 5082834:	dfc00017 	ldw	ra,0(sp)
 5082838:	dec00404 	addi	sp,sp,16
 508283c:	f800283a 	ret

05082840 <_puts_r>:
 5082840:	defff604 	addi	sp,sp,-40
 5082844:	dc400815 	stw	r17,32(sp)
 5082848:	2023883a 	mov	r17,r4
 508284c:	2809883a 	mov	r4,r5
 5082850:	dc000715 	stw	r16,28(sp)
 5082854:	dfc00915 	stw	ra,36(sp)
 5082858:	2821883a 	mov	r16,r5
 508285c:	508299c0 	call	508299c <strlen>
 5082860:	10c00044 	addi	r3,r2,1
 5082864:	d8800115 	stw	r2,4(sp)
 5082868:	89400217 	ldw	r5,8(r17)
 508286c:	00814274 	movhi	r2,1289
 5082870:	10bc3804 	addi	r2,r2,-3872
 5082874:	d8800215 	stw	r2,8(sp)
 5082878:	00800044 	movi	r2,1
 508287c:	d8800315 	stw	r2,12(sp)
 5082880:	8809883a 	mov	r4,r17
 5082884:	00800084 	movi	r2,2
 5082888:	d9800404 	addi	r6,sp,16
 508288c:	dc000015 	stw	r16,0(sp)
 5082890:	d8c00615 	stw	r3,24(sp)
 5082894:	dec00415 	stw	sp,16(sp)
 5082898:	d8800515 	stw	r2,20(sp)
 508289c:	5086bf80 	call	5086bf8 <__sfvwrite_r>
 50828a0:	1000061e 	bne	r2,zero,50828bc <_puts_r+0x7c>
 50828a4:	00800284 	movi	r2,10
 50828a8:	dfc00917 	ldw	ra,36(sp)
 50828ac:	dc400817 	ldw	r17,32(sp)
 50828b0:	dc000717 	ldw	r16,28(sp)
 50828b4:	dec00a04 	addi	sp,sp,40
 50828b8:	f800283a 	ret
 50828bc:	00bfffc4 	movi	r2,-1
 50828c0:	003ff906 	br	50828a8 <_puts_r+0x68>

050828c4 <puts>:
 50828c4:	00814274 	movhi	r2,1289
 50828c8:	10838c04 	addi	r2,r2,3632
 50828cc:	200b883a 	mov	r5,r4
 50828d0:	11000017 	ldw	r4,0(r2)
 50828d4:	50828401 	jmpi	5082840 <_puts_r>

050828d8 <_sprintf_r>:
 50828d8:	deffe704 	addi	sp,sp,-100
 50828dc:	2807883a 	mov	r3,r5
 50828e0:	dfc01715 	stw	ra,92(sp)
 50828e4:	d9c01815 	stw	r7,96(sp)
 50828e8:	00a00034 	movhi	r2,32768
 50828ec:	10bfffc4 	addi	r2,r2,-1
 50828f0:	02008204 	movi	r8,520
 50828f4:	d8800215 	stw	r2,8(sp)
 50828f8:	d8800515 	stw	r2,20(sp)
 50828fc:	d80b883a 	mov	r5,sp
 5082900:	d9c01804 	addi	r7,sp,96
 5082904:	00bfffc4 	movi	r2,-1
 5082908:	d8c00015 	stw	r3,0(sp)
 508290c:	d8c00415 	stw	r3,16(sp)
 5082910:	da00030d 	sth	r8,12(sp)
 5082914:	d880038d 	sth	r2,14(sp)
 5082918:	5082a5c0 	call	5082a5c <___vfprintf_internal_r>
 508291c:	d8c00017 	ldw	r3,0(sp)
 5082920:	18000005 	stb	zero,0(r3)
 5082924:	dfc01717 	ldw	ra,92(sp)
 5082928:	dec01904 	addi	sp,sp,100
 508292c:	f800283a 	ret

05082930 <sprintf>:
 5082930:	deffe604 	addi	sp,sp,-104
 5082934:	2007883a 	mov	r3,r4
 5082938:	dfc01715 	stw	ra,92(sp)
 508293c:	d9801815 	stw	r6,96(sp)
 5082940:	d9c01915 	stw	r7,100(sp)
 5082944:	00814274 	movhi	r2,1289
 5082948:	10838c04 	addi	r2,r2,3632
 508294c:	11000017 	ldw	r4,0(r2)
 5082950:	00a00034 	movhi	r2,32768
 5082954:	10bfffc4 	addi	r2,r2,-1
 5082958:	280d883a 	mov	r6,r5
 508295c:	02008204 	movi	r8,520
 5082960:	d8800215 	stw	r2,8(sp)
 5082964:	d8800515 	stw	r2,20(sp)
 5082968:	d80b883a 	mov	r5,sp
 508296c:	d9c01804 	addi	r7,sp,96
 5082970:	00bfffc4 	movi	r2,-1
 5082974:	d8c00015 	stw	r3,0(sp)
 5082978:	d8c00415 	stw	r3,16(sp)
 508297c:	da00030d 	sth	r8,12(sp)
 5082980:	d880038d 	sth	r2,14(sp)
 5082984:	5082a5c0 	call	5082a5c <___vfprintf_internal_r>
 5082988:	d8c00017 	ldw	r3,0(sp)
 508298c:	18000005 	stb	zero,0(r3)
 5082990:	dfc01717 	ldw	ra,92(sp)
 5082994:	dec01a04 	addi	sp,sp,104
 5082998:	f800283a 	ret

0508299c <strlen>:
 508299c:	208000cc 	andi	r2,r4,3
 50829a0:	10001f1e 	bne	r2,zero,5082a20 <strlen+0x84>
 50829a4:	20800017 	ldw	r2,0(r4)
 50829a8:	01ffbff4 	movhi	r7,65279
 50829ac:	39ffbfc4 	addi	r7,r7,-257
 50829b0:	01a02074 	movhi	r6,32897
 50829b4:	31a02004 	addi	r6,r6,-32640
 50829b8:	11c7883a 	add	r3,r2,r7
 50829bc:	0084303a 	nor	r2,zero,r2
 50829c0:	1886703a 	and	r3,r3,r2
 50829c4:	1986703a 	and	r3,r3,r6
 50829c8:	2005883a 	mov	r2,r4
 50829cc:	1800101e 	bne	r3,zero,5082a10 <strlen+0x74>
 50829d0:	10800104 	addi	r2,r2,4
 50829d4:	10c00017 	ldw	r3,0(r2)
 50829d8:	19cb883a 	add	r5,r3,r7
 50829dc:	00c6303a 	nor	r3,zero,r3
 50829e0:	28c6703a 	and	r3,r5,r3
 50829e4:	1986703a 	and	r3,r3,r6
 50829e8:	1800091e 	bne	r3,zero,5082a10 <strlen+0x74>
 50829ec:	10800104 	addi	r2,r2,4
 50829f0:	10c00017 	ldw	r3,0(r2)
 50829f4:	19cb883a 	add	r5,r3,r7
 50829f8:	00c6303a 	nor	r3,zero,r3
 50829fc:	28c6703a 	and	r3,r5,r3
 5082a00:	1986703a 	and	r3,r3,r6
 5082a04:	183ff226 	beq	r3,zero,50829d0 <strlen+0x34>
 5082a08:	00000106 	br	5082a10 <strlen+0x74>
 5082a0c:	10800044 	addi	r2,r2,1
 5082a10:	10c00007 	ldb	r3,0(r2)
 5082a14:	183ffd1e 	bne	r3,zero,5082a0c <strlen+0x70>
 5082a18:	1105c83a 	sub	r2,r2,r4
 5082a1c:	f800283a 	ret
 5082a20:	2005883a 	mov	r2,r4
 5082a24:	003ffa06 	br	5082a10 <strlen+0x74>

05082a28 <__sprint_r>:
 5082a28:	30800217 	ldw	r2,8(r6)
 5082a2c:	defffe04 	addi	sp,sp,-8
 5082a30:	dc000015 	stw	r16,0(sp)
 5082a34:	dfc00115 	stw	ra,4(sp)
 5082a38:	3021883a 	mov	r16,r6
 5082a3c:	10000226 	beq	r2,zero,5082a48 <__sprint_r+0x20>
 5082a40:	5086bf80 	call	5086bf8 <__sfvwrite_r>
 5082a44:	80000215 	stw	zero,8(r16)
 5082a48:	80000115 	stw	zero,4(r16)
 5082a4c:	dfc00117 	ldw	ra,4(sp)
 5082a50:	dc000017 	ldw	r16,0(sp)
 5082a54:	dec00204 	addi	sp,sp,8
 5082a58:	f800283a 	ret

05082a5c <___vfprintf_internal_r>:
 5082a5c:	defeb904 	addi	sp,sp,-1308
 5082a60:	dc013d15 	stw	r16,1268(sp)
 5082a64:	d9013015 	stw	r4,1216(sp)
 5082a68:	dfc14615 	stw	ra,1304(sp)
 5082a6c:	df014515 	stw	fp,1300(sp)
 5082a70:	ddc14415 	stw	r23,1296(sp)
 5082a74:	dd814315 	stw	r22,1292(sp)
 5082a78:	dd414215 	stw	r21,1288(sp)
 5082a7c:	dd014115 	stw	r20,1284(sp)
 5082a80:	dcc14015 	stw	r19,1280(sp)
 5082a84:	dc813f15 	stw	r18,1276(sp)
 5082a88:	dc413e15 	stw	r17,1272(sp)
 5082a8c:	d9412915 	stw	r5,1188(sp)
 5082a90:	3021883a 	mov	r16,r6
 5082a94:	d9c12d15 	stw	r7,1204(sp)
 5082a98:	50872e40 	call	50872e4 <_localeconv_r>
 5082a9c:	10800017 	ldw	r2,0(r2)
 5082aa0:	d9013017 	ldw	r4,1216(sp)
 5082aa4:	d8013315 	stw	zero,1228(sp)
 5082aa8:	d8813715 	stw	r2,1244(sp)
 5082aac:	d8013415 	stw	zero,1232(sp)
 5082ab0:	20000226 	beq	r4,zero,5082abc <___vfprintf_internal_r+0x60>
 5082ab4:	20800e17 	ldw	r2,56(r4)
 5082ab8:	10019826 	beq	r2,zero,508311c <___vfprintf_internal_r+0x6c0>
 5082abc:	da012917 	ldw	r8,1188(sp)
 5082ac0:	4080030b 	ldhu	r2,12(r8)
 5082ac4:	10c0020c 	andi	r3,r2,8
 5082ac8:	18ffffcc 	andi	r3,r3,65535
 5082acc:	18e0001c 	xori	r3,r3,32768
 5082ad0:	18e00004 	addi	r3,r3,-32768
 5082ad4:	18013a26 	beq	r3,zero,5082fc0 <___vfprintf_internal_r+0x564>
 5082ad8:	40c00417 	ldw	r3,16(r8)
 5082adc:	18013826 	beq	r3,zero,5082fc0 <___vfprintf_internal_r+0x564>
 5082ae0:	1100068c 	andi	r4,r2,26
 5082ae4:	00c00284 	movi	r3,10
 5082ae8:	20c13e26 	beq	r4,r3,5082fe4 <___vfprintf_internal_r+0x588>
 5082aec:	da010dc4 	addi	r8,sp,1079
 5082af0:	d8800404 	addi	r2,sp,16
 5082af4:	da012615 	stw	r8,1176(sp)
 5082af8:	d8811b15 	stw	r2,1132(sp)
 5082afc:	1013883a 	mov	r9,r2
 5082b00:	d8812617 	ldw	r2,1176(sp)
 5082b04:	da010e04 	addi	r8,sp,1080
 5082b08:	dc413017 	ldw	r17,1216(sp)
 5082b0c:	da012715 	stw	r8,1180(sp)
 5082b10:	4091c83a 	sub	r8,r8,r2
 5082b14:	d8011d15 	stw	zero,1140(sp)
 5082b18:	d8011c15 	stw	zero,1136(sp)
 5082b1c:	802b883a 	mov	r21,r16
 5082b20:	d8013215 	stw	zero,1224(sp)
 5082b24:	d8013615 	stw	zero,1240(sp)
 5082b28:	d8013515 	stw	zero,1236(sp)
 5082b2c:	d8012c15 	stw	zero,1200(sp)
 5082b30:	da013915 	stw	r8,1252(sp)
 5082b34:	a8800007 	ldb	r2,0(r21)
 5082b38:	1002ec26 	beq	r2,zero,50836ec <___vfprintf_internal_r+0xc90>
 5082b3c:	00c00944 	movi	r3,37
 5082b40:	a825883a 	mov	r18,r21
 5082b44:	10c0021e 	bne	r2,r3,5082b50 <___vfprintf_internal_r+0xf4>
 5082b48:	00001406 	br	5082b9c <___vfprintf_internal_r+0x140>
 5082b4c:	10c00326 	beq	r2,r3,5082b5c <___vfprintf_internal_r+0x100>
 5082b50:	94800044 	addi	r18,r18,1
 5082b54:	90800007 	ldb	r2,0(r18)
 5082b58:	103ffc1e 	bne	r2,zero,5082b4c <___vfprintf_internal_r+0xf0>
 5082b5c:	9561c83a 	sub	r16,r18,r21
 5082b60:	80000e26 	beq	r16,zero,5082b9c <___vfprintf_internal_r+0x140>
 5082b64:	da011d17 	ldw	r8,1140(sp)
 5082b68:	d8c11c17 	ldw	r3,1136(sp)
 5082b6c:	4d400015 	stw	r21,0(r9)
 5082b70:	4c000115 	stw	r16,4(r9)
 5082b74:	4411883a 	add	r8,r8,r16
 5082b78:	18c00044 	addi	r3,r3,1
 5082b7c:	da011d15 	stw	r8,1140(sp)
 5082b80:	d8c11c15 	stw	r3,1136(sp)
 5082b84:	008001c4 	movi	r2,7
 5082b88:	10c15d16 	blt	r2,r3,5083100 <___vfprintf_internal_r+0x6a4>
 5082b8c:	4a400204 	addi	r9,r9,8
 5082b90:	d8812c17 	ldw	r2,1200(sp)
 5082b94:	1405883a 	add	r2,r2,r16
 5082b98:	d8812c15 	stw	r2,1200(sp)
 5082b9c:	90800007 	ldb	r2,0(r18)
 5082ba0:	10013b26 	beq	r2,zero,5083090 <___vfprintf_internal_r+0x634>
 5082ba4:	95400044 	addi	r21,r18,1
 5082ba8:	94800047 	ldb	r18,1(r18)
 5082bac:	d8012585 	stb	zero,1174(sp)
 5082bb0:	073fffc4 	movi	fp,-1
 5082bb4:	d8012e15 	stw	zero,1208(sp)
 5082bb8:	0021883a 	mov	r16,zero
 5082bbc:	00c01604 	movi	r3,88
 5082bc0:	01400244 	movi	r5,9
 5082bc4:	02800a84 	movi	r10,42
 5082bc8:	01c01b04 	movi	r7,108
 5082bcc:	01800ac4 	movi	r6,43
 5082bd0:	02c00804 	movi	r11,32
 5082bd4:	ad400044 	addi	r21,r21,1
 5082bd8:	90bff804 	addi	r2,r18,-32
 5082bdc:	1880092e 	bgeu	r3,r2,5082c04 <___vfprintf_internal_r+0x1a8>
 5082be0:	90012b26 	beq	r18,zero,5083090 <___vfprintf_internal_r+0x634>
 5082be4:	00c00044 	movi	r3,1
 5082be8:	d8c12815 	stw	r3,1184(sp)
 5082bec:	dc810405 	stb	r18,1040(sp)
 5082bf0:	d8012585 	stb	zero,1174(sp)
 5082bf4:	d8c12b15 	stw	r3,1196(sp)
 5082bf8:	dcc10404 	addi	r19,sp,1040
 5082bfc:	d8013115 	stw	zero,1220(sp)
 5082c00:	00008806 	br	5082e24 <___vfprintf_internal_r+0x3c8>
 5082c04:	1085883a 	add	r2,r2,r2
 5082c08:	1085883a 	add	r2,r2,r2
 5082c0c:	01014234 	movhi	r4,1288
 5082c10:	210b0804 	addi	r4,r4,11296
 5082c14:	1105883a 	add	r2,r2,r4
 5082c18:	10800017 	ldw	r2,0(r2)
 5082c1c:	1000683a 	jmp	r2
 5082c20:	050831d4 	movui	r20,8391
 5082c24:	05082be0 	cmpeqi	r20,zero,8367
 5082c28:	05082be0 	cmpeqi	r20,zero,8367
 5082c2c:	050831e8 	cmpgeui	r20,zero,8391
 5082c30:	05082be0 	cmpeqi	r20,zero,8367
 5082c34:	05082be0 	cmpeqi	r20,zero,8367
 5082c38:	05082be0 	cmpeqi	r20,zero,8367
 5082c3c:	05082be0 	cmpeqi	r20,zero,8367
 5082c40:	05082be0 	cmpeqi	r20,zero,8367
 5082c44:	05082be0 	cmpeqi	r20,zero,8367
 5082c48:	050832d0 	cmplti	r20,zero,8395
 5082c4c:	0508318c 	andi	r20,zero,8390
 5082c50:	05082be0 	cmpeqi	r20,zero,8367
 5082c54:	05082fb4 	movhi	r20,8382
 5082c58:	05083198 	cmpnei	r20,zero,8390
 5082c5c:	05082be0 	cmpeqi	r20,zero,8367
 5082c60:	050831f4 	movhi	r20,8391
 5082c64:	050832f4 	movhi	r20,8395
 5082c68:	050832f4 	movhi	r20,8395
 5082c6c:	050832f4 	movhi	r20,8395
 5082c70:	050832f4 	movhi	r20,8395
 5082c74:	050832f4 	movhi	r20,8395
 5082c78:	050832f4 	movhi	r20,8395
 5082c7c:	050832f4 	movhi	r20,8395
 5082c80:	050832f4 	movhi	r20,8395
 5082c84:	050832f4 	movhi	r20,8395
 5082c88:	05082be0 	cmpeqi	r20,zero,8367
 5082c8c:	05082be0 	cmpeqi	r20,zero,8367
 5082c90:	05082be0 	cmpeqi	r20,zero,8367
 5082c94:	05082be0 	cmpeqi	r20,zero,8367
 5082c98:	05082be0 	cmpeqi	r20,zero,8367
 5082c9c:	05082be0 	cmpeqi	r20,zero,8367
 5082ca0:	05082be0 	cmpeqi	r20,zero,8367
 5082ca4:	05082be0 	cmpeqi	r20,zero,8367
 5082ca8:	05082be0 	cmpeqi	r20,zero,8367
 5082cac:	05082be0 	cmpeqi	r20,zero,8367
 5082cb0:	05082f50 	cmplti	r20,zero,8381
 5082cb4:	0508331c 	xori	r20,zero,8396
 5082cb8:	05082be0 	cmpeqi	r20,zero,8367
 5082cbc:	0508331c 	xori	r20,zero,8396
 5082cc0:	05082be0 	cmpeqi	r20,zero,8367
 5082cc4:	05082be0 	cmpeqi	r20,zero,8367
 5082cc8:	05082be0 	cmpeqi	r20,zero,8367
 5082ccc:	05082be0 	cmpeqi	r20,zero,8367
 5082cd0:	0508348c 	andi	r20,zero,8402
 5082cd4:	05082be0 	cmpeqi	r20,zero,8367
 5082cd8:	05082be0 	cmpeqi	r20,zero,8367
 5082cdc:	05082f18 	cmpnei	r20,zero,8380
 5082ce0:	05082be0 	cmpeqi	r20,zero,8367
 5082ce4:	05082be0 	cmpeqi	r20,zero,8367
 5082ce8:	05082be0 	cmpeqi	r20,zero,8367
 5082cec:	05082be0 	cmpeqi	r20,zero,8367
 5082cf0:	05082be0 	cmpeqi	r20,zero,8367
 5082cf4:	05082d84 	movi	r20,8374
 5082cf8:	05082be0 	cmpeqi	r20,zero,8367
 5082cfc:	05082be0 	cmpeqi	r20,zero,8367
 5082d00:	05083200 	call	508320 <__alt_mem_sdram+0x508320>
 5082d04:	05082be0 	cmpeqi	r20,zero,8367
 5082d08:	05082be0 	cmpeqi	r20,zero,8367
 5082d0c:	05082be0 	cmpeqi	r20,zero,8367
 5082d10:	05082be0 	cmpeqi	r20,zero,8367
 5082d14:	05082be0 	cmpeqi	r20,zero,8367
 5082d18:	05082be0 	cmpeqi	r20,zero,8367
 5082d1c:	05082be0 	cmpeqi	r20,zero,8367
 5082d20:	05082be0 	cmpeqi	r20,zero,8367
 5082d24:	05082be0 	cmpeqi	r20,zero,8367
 5082d28:	05082be0 	cmpeqi	r20,zero,8367
 5082d2c:	05083274 	movhi	r20,8393
 5082d30:	05082f54 	movui	r20,8381
 5082d34:	0508331c 	xori	r20,zero,8396
 5082d38:	0508331c 	xori	r20,zero,8396
 5082d3c:	0508331c 	xori	r20,zero,8396
 5082d40:	05083254 	movui	r20,8393
 5082d44:	05082f54 	movui	r20,8381
 5082d48:	05082be0 	cmpeqi	r20,zero,8367
 5082d4c:	05082be0 	cmpeqi	r20,zero,8367
 5082d50:	05083260 	cmpeqi	r20,zero,8393
 5082d54:	05082be0 	cmpeqi	r20,zero,8367
 5082d58:	050832a4 	muli	r20,zero,8394
 5082d5c:	05082f1c 	xori	r20,zero,8380
 5082d60:	050833a4 	muli	r20,zero,8398
 5082d64:	050833f0 	cmpltui	r20,zero,8399
 5082d68:	05082be0 	cmpeqi	r20,zero,8367
 5082d6c:	050833fc 	xorhi	r20,zero,8399
 5082d70:	05082be0 	cmpeqi	r20,zero,8367
 5082d74:	05082d88 	cmpgei	r20,zero,8374
 5082d78:	05082be0 	cmpeqi	r20,zero,8367
 5082d7c:	05082be0 	cmpeqi	r20,zero,8367
 5082d80:	05083458 	cmpnei	r20,zero,8401
 5082d84:	84000414 	ori	r16,r16,16
 5082d88:	8080080c 	andi	r2,r16,32
 5082d8c:	1000f51e 	bne	r2,zero,5083164 <___vfprintf_internal_r+0x708>
 5082d90:	8080040c 	andi	r2,r16,16
 5082d94:	10042c26 	beq	r2,zero,5083e48 <___vfprintf_internal_r+0x13ec>
 5082d98:	da012d17 	ldw	r8,1204(sp)
 5082d9c:	002d883a 	mov	r22,zero
 5082da0:	00c00044 	movi	r3,1
 5082da4:	45c00017 	ldw	r23,0(r8)
 5082da8:	42000104 	addi	r8,r8,4
 5082dac:	da012d15 	stw	r8,1204(sp)
 5082db0:	b805883a 	mov	r2,r23
 5082db4:	d8012585 	stb	zero,1174(sp)
 5082db8:	e0000216 	blt	fp,zero,5082dc4 <___vfprintf_internal_r+0x368>
 5082dbc:	013fdfc4 	movi	r4,-129
 5082dc0:	8120703a 	and	r16,r16,r4
 5082dc4:	1002671e 	bne	r2,zero,5083764 <___vfprintf_internal_r+0xd08>
 5082dc8:	e002661e 	bne	fp,zero,5083764 <___vfprintf_internal_r+0xd08>
 5082dcc:	18c03fcc 	andi	r3,r3,255
 5082dd0:	1803561e 	bne	r3,zero,5083b2c <___vfprintf_internal_r+0x10d0>
 5082dd4:	8080004c 	andi	r2,r16,1
 5082dd8:	10035426 	beq	r2,zero,5083b2c <___vfprintf_internal_r+0x10d0>
 5082ddc:	da013917 	ldw	r8,1252(sp)
 5082de0:	00800c04 	movi	r2,48
 5082de4:	d8810dc5 	stb	r2,1079(sp)
 5082de8:	da012b15 	stw	r8,1196(sp)
 5082dec:	dcc10dc4 	addi	r19,sp,1079
 5082df0:	d8812b17 	ldw	r2,1196(sp)
 5082df4:	d8812815 	stw	r2,1184(sp)
 5082df8:	1700010e 	bge	r2,fp,5082e00 <___vfprintf_internal_r+0x3a4>
 5082dfc:	df012815 	stw	fp,1184(sp)
 5082e00:	d8812583 	ldbu	r2,1174(sp)
 5082e04:	df013115 	stw	fp,1220(sp)
 5082e08:	10803fcc 	andi	r2,r2,255
 5082e0c:	1080201c 	xori	r2,r2,128
 5082e10:	10bfe004 	addi	r2,r2,-128
 5082e14:	10000326 	beq	r2,zero,5082e24 <___vfprintf_internal_r+0x3c8>
 5082e18:	da012817 	ldw	r8,1184(sp)
 5082e1c:	42000044 	addi	r8,r8,1
 5082e20:	da012815 	stw	r8,1184(sp)
 5082e24:	80c0008c 	andi	r3,r16,2
 5082e28:	d8c12a15 	stw	r3,1192(sp)
 5082e2c:	18000326 	beq	r3,zero,5082e3c <___vfprintf_internal_r+0x3e0>
 5082e30:	da012817 	ldw	r8,1184(sp)
 5082e34:	42000084 	addi	r8,r8,2
 5082e38:	da012815 	stw	r8,1184(sp)
 5082e3c:	80c0210c 	andi	r3,r16,132
 5082e40:	d8c12f15 	stw	r3,1212(sp)
 5082e44:	1801941e 	bne	r3,zero,5083498 <___vfprintf_internal_r+0xa3c>
 5082e48:	da012e17 	ldw	r8,1208(sp)
 5082e4c:	d8c12817 	ldw	r3,1184(sp)
 5082e50:	40edc83a 	sub	r22,r8,r3
 5082e54:	0581900e 	bge	zero,r22,5083498 <___vfprintf_internal_r+0xa3c>
 5082e58:	02800404 	movi	r10,16
 5082e5c:	da011d17 	ldw	r8,1140(sp)
 5082e60:	d8c11c17 	ldw	r3,1136(sp)
 5082e64:	05c14274 	movhi	r23,1289
 5082e68:	bdfc4984 	addi	r23,r23,-3802
 5082e6c:	5580200e 	bge	r10,r22,5082ef0 <___vfprintf_internal_r+0x494>
 5082e70:	dc813815 	stw	r18,1248(sp)
 5082e74:	5039883a 	mov	fp,r10
 5082e78:	b825883a 	mov	r18,r23
 5082e7c:	050001c4 	movi	r20,7
 5082e80:	b02f883a 	mov	r23,r22
 5082e84:	802d883a 	mov	r22,r16
 5082e88:	dc012917 	ldw	r16,1188(sp)
 5082e8c:	00000306 	br	5082e9c <___vfprintf_internal_r+0x440>
 5082e90:	bdfffc04 	addi	r23,r23,-16
 5082e94:	4a400204 	addi	r9,r9,8
 5082e98:	e5c0110e 	bge	fp,r23,5082ee0 <___vfprintf_internal_r+0x484>
 5082e9c:	4c800015 	stw	r18,0(r9)
 5082ea0:	4f000115 	stw	fp,4(r9)
 5082ea4:	42000404 	addi	r8,r8,16
 5082ea8:	18c00044 	addi	r3,r3,1
 5082eac:	da011d15 	stw	r8,1140(sp)
 5082eb0:	d8c11c15 	stw	r3,1136(sp)
 5082eb4:	a0fff60e 	bge	r20,r3,5082e90 <___vfprintf_internal_r+0x434>
 5082eb8:	8809883a 	mov	r4,r17
 5082ebc:	800b883a 	mov	r5,r16
 5082ec0:	d9811b04 	addi	r6,sp,1132
 5082ec4:	5082a280 	call	5082a28 <__sprint_r>
 5082ec8:	1000771e 	bne	r2,zero,50830a8 <___vfprintf_internal_r+0x64c>
 5082ecc:	bdfffc04 	addi	r23,r23,-16
 5082ed0:	da011d17 	ldw	r8,1140(sp)
 5082ed4:	d8c11c17 	ldw	r3,1136(sp)
 5082ed8:	da400404 	addi	r9,sp,16
 5082edc:	e5ffef16 	blt	fp,r23,5082e9c <___vfprintf_internal_r+0x440>
 5082ee0:	b021883a 	mov	r16,r22
 5082ee4:	b82d883a 	mov	r22,r23
 5082ee8:	902f883a 	mov	r23,r18
 5082eec:	dc813817 	ldw	r18,1248(sp)
 5082ef0:	4dc00015 	stw	r23,0(r9)
 5082ef4:	4d800115 	stw	r22,4(r9)
 5082ef8:	4591883a 	add	r8,r8,r22
 5082efc:	18c00044 	addi	r3,r3,1
 5082f00:	da011d15 	stw	r8,1140(sp)
 5082f04:	d8c11c15 	stw	r3,1136(sp)
 5082f08:	008001c4 	movi	r2,7
 5082f0c:	10c36d16 	blt	r2,r3,5083cc4 <___vfprintf_internal_r+0x1268>
 5082f10:	4a400204 	addi	r9,r9,8
 5082f14:	00016206 	br	50834a0 <___vfprintf_internal_r+0xa44>
 5082f18:	84000414 	ori	r16,r16,16
 5082f1c:	8080080c 	andi	r2,r16,32
 5082f20:	1000801e 	bne	r2,zero,5083124 <___vfprintf_internal_r+0x6c8>
 5082f24:	8080040c 	andi	r2,r16,16
 5082f28:	1003da26 	beq	r2,zero,5083e94 <___vfprintf_internal_r+0x1438>
 5082f2c:	d8c12d17 	ldw	r3,1204(sp)
 5082f30:	002d883a 	mov	r22,zero
 5082f34:	1dc00017 	ldw	r23,0(r3)
 5082f38:	18c00104 	addi	r3,r3,4
 5082f3c:	d8c12d15 	stw	r3,1204(sp)
 5082f40:	b805883a 	mov	r2,r23
 5082f44:	0007883a 	mov	r3,zero
 5082f48:	d8012585 	stb	zero,1174(sp)
 5082f4c:	003f9a06 	br	5082db8 <___vfprintf_internal_r+0x35c>
 5082f50:	84000414 	ori	r16,r16,16
 5082f54:	8080080c 	andi	r2,r16,32
 5082f58:	10007b1e 	bne	r2,zero,5083148 <___vfprintf_internal_r+0x6ec>
 5082f5c:	8080040c 	andi	r2,r16,16
 5082f60:	1003ed26 	beq	r2,zero,5083f18 <___vfprintf_internal_r+0x14bc>
 5082f64:	d9012d17 	ldw	r4,1204(sp)
 5082f68:	25c00017 	ldw	r23,0(r4)
 5082f6c:	21000104 	addi	r4,r4,4
 5082f70:	d9012d15 	stw	r4,1204(sp)
 5082f74:	b82dd7fa 	srai	r22,r23,31
 5082f78:	b005883a 	mov	r2,r22
 5082f7c:	1003230e 	bge	r2,zero,5083c0c <___vfprintf_internal_r+0x11b0>
 5082f80:	05efc83a 	sub	r23,zero,r23
 5082f84:	b804c03a 	cmpne	r2,r23,zero
 5082f88:	05adc83a 	sub	r22,zero,r22
 5082f8c:	b0adc83a 	sub	r22,r22,r2
 5082f90:	00800b44 	movi	r2,45
 5082f94:	d8812585 	stb	r2,1174(sp)
 5082f98:	00c00044 	movi	r3,1
 5082f9c:	bd84b03a 	or	r2,r23,r22
 5082fa0:	003f8506 	br	5082db8 <___vfprintf_internal_r+0x35c>
 5082fa4:	da012e17 	ldw	r8,1208(sp)
 5082fa8:	d8812d15 	stw	r2,1204(sp)
 5082fac:	0211c83a 	sub	r8,zero,r8
 5082fb0:	da012e15 	stw	r8,1208(sp)
 5082fb4:	84000114 	ori	r16,r16,4
 5082fb8:	ac800007 	ldb	r18,0(r21)
 5082fbc:	003f0506 	br	5082bd4 <___vfprintf_internal_r+0x178>
 5082fc0:	d9013017 	ldw	r4,1216(sp)
 5082fc4:	d9412917 	ldw	r5,1188(sp)
 5082fc8:	50849640 	call	5084964 <__swsetup_r>
 5082fcc:	10003d1e 	bne	r2,zero,50830c4 <___vfprintf_internal_r+0x668>
 5082fd0:	d8c12917 	ldw	r3,1188(sp)
 5082fd4:	1880030b 	ldhu	r2,12(r3)
 5082fd8:	00c00284 	movi	r3,10
 5082fdc:	1100068c 	andi	r4,r2,26
 5082fe0:	20fec21e 	bne	r4,r3,5082aec <___vfprintf_internal_r+0x90>
 5082fe4:	d9012917 	ldw	r4,1188(sp)
 5082fe8:	20c0038b 	ldhu	r3,14(r4)
 5082fec:	193fffcc 	andi	r4,r3,65535
 5082ff0:	2120001c 	xori	r4,r4,32768
 5082ff4:	21200004 	addi	r4,r4,-32768
 5082ff8:	203ebc16 	blt	r4,zero,5082aec <___vfprintf_internal_r+0x90>
 5082ffc:	da012917 	ldw	r8,1188(sp)
 5083000:	d9013017 	ldw	r4,1216(sp)
 5083004:	d9c12d17 	ldw	r7,1204(sp)
 5083008:	42800717 	ldw	r10,28(r8)
 508300c:	42400917 	ldw	r9,36(r8)
 5083010:	10bfff4c 	andi	r2,r2,65533
 5083014:	02010004 	movi	r8,1024
 5083018:	d881070d 	sth	r2,1052(sp)
 508301c:	d9410404 	addi	r5,sp,1040
 5083020:	d8800404 	addi	r2,sp,16
 5083024:	800d883a 	mov	r6,r16
 5083028:	d8c1078d 	sth	r3,1054(sp)
 508302c:	da810b15 	stw	r10,1068(sp)
 5083030:	da410d15 	stw	r9,1076(sp)
 5083034:	d8810415 	stw	r2,1040(sp)
 5083038:	d8810815 	stw	r2,1056(sp)
 508303c:	da010615 	stw	r8,1048(sp)
 5083040:	da010915 	stw	r8,1060(sp)
 5083044:	d8010a15 	stw	zero,1064(sp)
 5083048:	5082a5c0 	call	5082a5c <___vfprintf_internal_r>
 508304c:	d8812c15 	stw	r2,1200(sp)
 5083050:	10000416 	blt	r2,zero,5083064 <___vfprintf_internal_r+0x608>
 5083054:	d9013017 	ldw	r4,1216(sp)
 5083058:	d9410404 	addi	r5,sp,1040
 508305c:	50862fc0 	call	50862fc <_fflush_r>
 5083060:	1005d81e 	bne	r2,zero,50847c4 <___vfprintf_internal_r+0x1d68>
 5083064:	d881070b 	ldhu	r2,1052(sp)
 5083068:	1080100c 	andi	r2,r2,64
 508306c:	10bfffcc 	andi	r2,r2,65535
 5083070:	10a0001c 	xori	r2,r2,32768
 5083074:	10a00004 	addi	r2,r2,-32768
 5083078:	10001426 	beq	r2,zero,50830cc <___vfprintf_internal_r+0x670>
 508307c:	d8c12917 	ldw	r3,1188(sp)
 5083080:	1880030b 	ldhu	r2,12(r3)
 5083084:	10801014 	ori	r2,r2,64
 5083088:	1880030d 	sth	r2,12(r3)
 508308c:	00000f06 	br	50830cc <___vfprintf_internal_r+0x670>
 5083090:	d8811d17 	ldw	r2,1140(sp)
 5083094:	10000426 	beq	r2,zero,50830a8 <___vfprintf_internal_r+0x64c>
 5083098:	d9013017 	ldw	r4,1216(sp)
 508309c:	d9412917 	ldw	r5,1188(sp)
 50830a0:	d9811b04 	addi	r6,sp,1132
 50830a4:	5082a280 	call	5082a28 <__sprint_r>
 50830a8:	d8c12917 	ldw	r3,1188(sp)
 50830ac:	1880030b 	ldhu	r2,12(r3)
 50830b0:	1080100c 	andi	r2,r2,64
 50830b4:	10bfffcc 	andi	r2,r2,65535
 50830b8:	10a0001c 	xori	r2,r2,32768
 50830bc:	10a00004 	addi	r2,r2,-32768
 50830c0:	10000226 	beq	r2,zero,50830cc <___vfprintf_internal_r+0x670>
 50830c4:	00bfffc4 	movi	r2,-1
 50830c8:	d8812c15 	stw	r2,1200(sp)
 50830cc:	d8812c17 	ldw	r2,1200(sp)
 50830d0:	dfc14617 	ldw	ra,1304(sp)
 50830d4:	df014517 	ldw	fp,1300(sp)
 50830d8:	ddc14417 	ldw	r23,1296(sp)
 50830dc:	dd814317 	ldw	r22,1292(sp)
 50830e0:	dd414217 	ldw	r21,1288(sp)
 50830e4:	dd014117 	ldw	r20,1284(sp)
 50830e8:	dcc14017 	ldw	r19,1280(sp)
 50830ec:	dc813f17 	ldw	r18,1276(sp)
 50830f0:	dc413e17 	ldw	r17,1272(sp)
 50830f4:	dc013d17 	ldw	r16,1268(sp)
 50830f8:	dec14704 	addi	sp,sp,1308
 50830fc:	f800283a 	ret
 5083100:	d9412917 	ldw	r5,1188(sp)
 5083104:	8809883a 	mov	r4,r17
 5083108:	d9811b04 	addi	r6,sp,1132
 508310c:	5082a280 	call	5082a28 <__sprint_r>
 5083110:	103fe51e 	bne	r2,zero,50830a8 <___vfprintf_internal_r+0x64c>
 5083114:	da400404 	addi	r9,sp,16
 5083118:	003e9d06 	br	5082b90 <___vfprintf_internal_r+0x134>
 508311c:	50865a40 	call	50865a4 <__sinit>
 5083120:	003e6606 	br	5082abc <___vfprintf_internal_r+0x60>
 5083124:	d8812d17 	ldw	r2,1204(sp)
 5083128:	0007883a 	mov	r3,zero
 508312c:	15c00017 	ldw	r23,0(r2)
 5083130:	15800117 	ldw	r22,4(r2)
 5083134:	10800204 	addi	r2,r2,8
 5083138:	d8812d15 	stw	r2,1204(sp)
 508313c:	d8012585 	stb	zero,1174(sp)
 5083140:	bd84b03a 	or	r2,r23,r22
 5083144:	003f1c06 	br	5082db8 <___vfprintf_internal_r+0x35c>
 5083148:	d8c12d17 	ldw	r3,1204(sp)
 508314c:	18800117 	ldw	r2,4(r3)
 5083150:	1dc00017 	ldw	r23,0(r3)
 5083154:	18c00204 	addi	r3,r3,8
 5083158:	d8c12d15 	stw	r3,1204(sp)
 508315c:	102d883a 	mov	r22,r2
 5083160:	003f8606 	br	5082f7c <___vfprintf_internal_r+0x520>
 5083164:	d8c12d17 	ldw	r3,1204(sp)
 5083168:	d9012d17 	ldw	r4,1204(sp)
 508316c:	1dc00017 	ldw	r23,0(r3)
 5083170:	1d800117 	ldw	r22,4(r3)
 5083174:	21000204 	addi	r4,r4,8
 5083178:	00c00044 	movi	r3,1
 508317c:	d9012d15 	stw	r4,1204(sp)
 5083180:	bd84b03a 	or	r2,r23,r22
 5083184:	d8012585 	stb	zero,1174(sp)
 5083188:	003f0b06 	br	5082db8 <___vfprintf_internal_r+0x35c>
 508318c:	d9812585 	stb	r6,1174(sp)
 5083190:	ac800007 	ldb	r18,0(r21)
 5083194:	003e8f06 	br	5082bd4 <___vfprintf_internal_r+0x178>
 5083198:	ac800007 	ldb	r18,0(r21)
 508319c:	a9000044 	addi	r4,r21,1
 50831a0:	92857d26 	beq	r18,r10,5084798 <___vfprintf_internal_r+0x1d3c>
 50831a4:	90bff404 	addi	r2,r18,-48
 50831a8:	0039883a 	mov	fp,zero
 50831ac:	28800736 	bltu	r5,r2,50831cc <___vfprintf_internal_r+0x770>
 50831b0:	24800007 	ldb	r18,0(r4)
 50831b4:	e70002a4 	muli	fp,fp,10
 50831b8:	21000044 	addi	r4,r4,1
 50831bc:	1739883a 	add	fp,r2,fp
 50831c0:	90bff404 	addi	r2,r18,-48
 50831c4:	28bffa2e 	bgeu	r5,r2,50831b0 <___vfprintf_internal_r+0x754>
 50831c8:	e0044216 	blt	fp,zero,50842d4 <___vfprintf_internal_r+0x1878>
 50831cc:	202b883a 	mov	r21,r4
 50831d0:	003e8106 	br	5082bd8 <___vfprintf_internal_r+0x17c>
 50831d4:	d8812587 	ldb	r2,1174(sp)
 50831d8:	1003581e 	bne	r2,zero,5083f3c <___vfprintf_internal_r+0x14e0>
 50831dc:	dac12585 	stb	r11,1174(sp)
 50831e0:	ac800007 	ldb	r18,0(r21)
 50831e4:	003e7b06 	br	5082bd4 <___vfprintf_internal_r+0x178>
 50831e8:	84000054 	ori	r16,r16,1
 50831ec:	ac800007 	ldb	r18,0(r21)
 50831f0:	003e7806 	br	5082bd4 <___vfprintf_internal_r+0x178>
 50831f4:	84002014 	ori	r16,r16,128
 50831f8:	ac800007 	ldb	r18,0(r21)
 50831fc:	003e7506 	br	5082bd4 <___vfprintf_internal_r+0x178>
 5083200:	02014274 	movhi	r8,1289
 5083204:	423c3d04 	addi	r8,r8,-3852
 5083208:	da013615 	stw	r8,1240(sp)
 508320c:	8080080c 	andi	r2,r16,32
 5083210:	10009626 	beq	r2,zero,508346c <___vfprintf_internal_r+0xa10>
 5083214:	d8812d17 	ldw	r2,1204(sp)
 5083218:	15c00017 	ldw	r23,0(r2)
 508321c:	15800117 	ldw	r22,4(r2)
 5083220:	10800204 	addi	r2,r2,8
 5083224:	d8812d15 	stw	r2,1204(sp)
 5083228:	8080004c 	andi	r2,r16,1
 508322c:	1002ae26 	beq	r2,zero,5083ce8 <___vfprintf_internal_r+0x128c>
 5083230:	bd84b03a 	or	r2,r23,r22
 5083234:	10032a26 	beq	r2,zero,5083ee0 <___vfprintf_internal_r+0x1484>
 5083238:	00c00c04 	movi	r3,48
 508323c:	d8c12505 	stb	r3,1172(sp)
 5083240:	dc812545 	stb	r18,1173(sp)
 5083244:	84000094 	ori	r16,r16,2
 5083248:	00c00084 	movi	r3,2
 508324c:	d8012585 	stb	zero,1174(sp)
 5083250:	003ed906 	br	5082db8 <___vfprintf_internal_r+0x35c>
 5083254:	84001014 	ori	r16,r16,64
 5083258:	ac800007 	ldb	r18,0(r21)
 508325c:	003e5d06 	br	5082bd4 <___vfprintf_internal_r+0x178>
 5083260:	ac800007 	ldb	r18,0(r21)
 5083264:	a805883a 	mov	r2,r21
 5083268:	91c43226 	beq	r18,r7,5084334 <___vfprintf_internal_r+0x18d8>
 508326c:	84000414 	ori	r16,r16,16
 5083270:	003e5806 	br	5082bd4 <___vfprintf_internal_r+0x178>
 5083274:	d8c12d17 	ldw	r3,1204(sp)
 5083278:	02000044 	movi	r8,1
 508327c:	da012815 	stw	r8,1184(sp)
 5083280:	18800017 	ldw	r2,0(r3)
 5083284:	18c00104 	addi	r3,r3,4
 5083288:	d8012585 	stb	zero,1174(sp)
 508328c:	d8810405 	stb	r2,1040(sp)
 5083290:	d8c12d15 	stw	r3,1204(sp)
 5083294:	da012b15 	stw	r8,1196(sp)
 5083298:	dcc10404 	addi	r19,sp,1040
 508329c:	d8013115 	stw	zero,1220(sp)
 50832a0:	003ee006 	br	5082e24 <___vfprintf_internal_r+0x3c8>
 50832a4:	8080080c 	andi	r2,r16,32
 50832a8:	10031026 	beq	r2,zero,5083eec <___vfprintf_internal_r+0x1490>
 50832ac:	d9012d17 	ldw	r4,1204(sp)
 50832b0:	da012c17 	ldw	r8,1200(sp)
 50832b4:	20800017 	ldw	r2,0(r4)
 50832b8:	4007d7fa 	srai	r3,r8,31
 50832bc:	21000104 	addi	r4,r4,4
 50832c0:	d9012d15 	stw	r4,1204(sp)
 50832c4:	12000015 	stw	r8,0(r2)
 50832c8:	10c00115 	stw	r3,4(r2)
 50832cc:	003e1906 	br	5082b34 <___vfprintf_internal_r+0xd8>
 50832d0:	da012d17 	ldw	r8,1204(sp)
 50832d4:	d9012d17 	ldw	r4,1204(sp)
 50832d8:	42000017 	ldw	r8,0(r8)
 50832dc:	20800104 	addi	r2,r4,4
 50832e0:	da012e15 	stw	r8,1208(sp)
 50832e4:	403f2f16 	blt	r8,zero,5082fa4 <___vfprintf_internal_r+0x548>
 50832e8:	d8812d15 	stw	r2,1204(sp)
 50832ec:	ac800007 	ldb	r18,0(r21)
 50832f0:	003e3806 	br	5082bd4 <___vfprintf_internal_r+0x178>
 50832f4:	0009883a 	mov	r4,zero
 50832f8:	90bff404 	addi	r2,r18,-48
 50832fc:	ac800007 	ldb	r18,0(r21)
 5083300:	210002a4 	muli	r4,r4,10
 5083304:	ad400044 	addi	r21,r21,1
 5083308:	2089883a 	add	r4,r4,r2
 508330c:	90bff404 	addi	r2,r18,-48
 5083310:	28bffa2e 	bgeu	r5,r2,50832fc <___vfprintf_internal_r+0x8a0>
 5083314:	d9012e15 	stw	r4,1208(sp)
 5083318:	003e2f06 	br	5082bd8 <___vfprintf_internal_r+0x17c>
 508331c:	8080020c 	andi	r2,r16,8
 5083320:	1002d426 	beq	r2,zero,5083e74 <___vfprintf_internal_r+0x1418>
 5083324:	d8c12d17 	ldw	r3,1204(sp)
 5083328:	1d800017 	ldw	r22,0(r3)
 508332c:	1d000117 	ldw	r20,4(r3)
 5083330:	18c00204 	addi	r3,r3,8
 5083334:	d8c12d15 	stw	r3,1204(sp)
 5083338:	dd813315 	stw	r22,1228(sp)
 508333c:	dd013415 	stw	r20,1232(sp)
 5083340:	b009883a 	mov	r4,r22
 5083344:	a00b883a 	mov	r5,r20
 5083348:	da413c15 	stw	r9,1264(sp)
 508334c:	50895dc0 	call	50895dc <__isinfd>
 5083350:	da413c17 	ldw	r9,1264(sp)
 5083354:	b009883a 	mov	r4,r22
 5083358:	a00b883a 	mov	r5,r20
 508335c:	10035726 	beq	r2,zero,50840bc <___vfprintf_internal_r+0x1660>
 5083360:	000d883a 	mov	r6,zero
 5083364:	000f883a 	mov	r7,zero
 5083368:	508b27c0 	call	508b27c <__ltdf2>
 508336c:	da413c17 	ldw	r9,1264(sp)
 5083370:	10041b16 	blt	r2,zero,50843e0 <___vfprintf_internal_r+0x1984>
 5083374:	d8812583 	ldbu	r2,1174(sp)
 5083378:	00c011c4 	movi	r3,71
 508337c:	1c830b16 	blt	r3,r18,5083fac <___vfprintf_internal_r+0x1550>
 5083380:	04c14274 	movhi	r19,1289
 5083384:	9cfc3904 	addi	r19,r19,-3868
 5083388:	020000c4 	movi	r8,3
 508338c:	00ffdfc4 	movi	r3,-129
 5083390:	da012815 	stw	r8,1184(sp)
 5083394:	80e0703a 	and	r16,r16,r3
 5083398:	da012b15 	stw	r8,1196(sp)
 508339c:	d8013115 	stw	zero,1220(sp)
 50833a0:	003e9906 	br	5082e08 <___vfprintf_internal_r+0x3ac>
 50833a4:	d8812d17 	ldw	r2,1204(sp)
 50833a8:	d8c12d17 	ldw	r3,1204(sp)
 50833ac:	02014274 	movhi	r8,1289
 50833b0:	423c4204 	addi	r8,r8,-3832
 50833b4:	15c00017 	ldw	r23,0(r2)
 50833b8:	00800c04 	movi	r2,48
 50833bc:	18c00104 	addi	r3,r3,4
 50833c0:	d8812505 	stb	r2,1172(sp)
 50833c4:	00801e04 	movi	r2,120
 50833c8:	d8812545 	stb	r2,1173(sp)
 50833cc:	d8c12d15 	stw	r3,1204(sp)
 50833d0:	002d883a 	mov	r22,zero
 50833d4:	84000094 	ori	r16,r16,2
 50833d8:	da013615 	stw	r8,1240(sp)
 50833dc:	00c00084 	movi	r3,2
 50833e0:	04801e04 	movi	r18,120
 50833e4:	b805883a 	mov	r2,r23
 50833e8:	d8012585 	stb	zero,1174(sp)
 50833ec:	003e7206 	br	5082db8 <___vfprintf_internal_r+0x35c>
 50833f0:	84000814 	ori	r16,r16,32
 50833f4:	ac800007 	ldb	r18,0(r21)
 50833f8:	003df606 	br	5082bd4 <___vfprintf_internal_r+0x178>
 50833fc:	d8812d17 	ldw	r2,1204(sp)
 5083400:	d8012585 	stb	zero,1174(sp)
 5083404:	14c00017 	ldw	r19,0(r2)
 5083408:	15c00104 	addi	r23,r2,4
 508340c:	98040126 	beq	r19,zero,5084414 <___vfprintf_internal_r+0x19b8>
 5083410:	9809883a 	mov	r4,r19
 5083414:	e003dd16 	blt	fp,zero,508438c <___vfprintf_internal_r+0x1930>
 5083418:	000b883a 	mov	r5,zero
 508341c:	e00d883a 	mov	r6,fp
 5083420:	da413c15 	stw	r9,1264(sp)
 5083424:	5087c440 	call	5087c44 <memchr>
 5083428:	da413c17 	ldw	r9,1264(sp)
 508342c:	10042e26 	beq	r2,zero,50844e8 <___vfprintf_internal_r+0x1a8c>
 5083430:	14c5c83a 	sub	r2,r2,r19
 5083434:	d8812b15 	stw	r2,1196(sp)
 5083438:	e083790e 	bge	fp,r2,5084220 <___vfprintf_internal_r+0x17c4>
 508343c:	df012815 	stw	fp,1184(sp)
 5083440:	e0049516 	blt	fp,zero,5084698 <___vfprintf_internal_r+0x1c3c>
 5083444:	d8812583 	ldbu	r2,1174(sp)
 5083448:	df012b15 	stw	fp,1196(sp)
 508344c:	ddc12d15 	stw	r23,1204(sp)
 5083450:	d8013115 	stw	zero,1220(sp)
 5083454:	003e6c06 	br	5082e08 <___vfprintf_internal_r+0x3ac>
 5083458:	02014274 	movhi	r8,1289
 508345c:	423c4204 	addi	r8,r8,-3832
 5083460:	da013615 	stw	r8,1240(sp)
 5083464:	8080080c 	andi	r2,r16,32
 5083468:	103f6a1e 	bne	r2,zero,5083214 <___vfprintf_internal_r+0x7b8>
 508346c:	8080040c 	andi	r2,r16,16
 5083470:	10029326 	beq	r2,zero,5083ec0 <___vfprintf_internal_r+0x1464>
 5083474:	d8c12d17 	ldw	r3,1204(sp)
 5083478:	002d883a 	mov	r22,zero
 508347c:	1dc00017 	ldw	r23,0(r3)
 5083480:	18c00104 	addi	r3,r3,4
 5083484:	d8c12d15 	stw	r3,1204(sp)
 5083488:	003f6706 	br	5083228 <___vfprintf_internal_r+0x7cc>
 508348c:	84000214 	ori	r16,r16,8
 5083490:	ac800007 	ldb	r18,0(r21)
 5083494:	003dcf06 	br	5082bd4 <___vfprintf_internal_r+0x178>
 5083498:	da011d17 	ldw	r8,1140(sp)
 508349c:	d8c11c17 	ldw	r3,1136(sp)
 50834a0:	d8812587 	ldb	r2,1174(sp)
 50834a4:	10000b26 	beq	r2,zero,50834d4 <___vfprintf_internal_r+0xa78>
 50834a8:	d8812584 	addi	r2,sp,1174
 50834ac:	48800015 	stw	r2,0(r9)
 50834b0:	00800044 	movi	r2,1
 50834b4:	48800115 	stw	r2,4(r9)
 50834b8:	4091883a 	add	r8,r8,r2
 50834bc:	1887883a 	add	r3,r3,r2
 50834c0:	da011d15 	stw	r8,1140(sp)
 50834c4:	d8c11c15 	stw	r3,1136(sp)
 50834c8:	008001c4 	movi	r2,7
 50834cc:	10c18516 	blt	r2,r3,5083ae4 <___vfprintf_internal_r+0x1088>
 50834d0:	4a400204 	addi	r9,r9,8
 50834d4:	d9012a17 	ldw	r4,1192(sp)
 50834d8:	20000b26 	beq	r4,zero,5083508 <___vfprintf_internal_r+0xaac>
 50834dc:	d8812504 	addi	r2,sp,1172
 50834e0:	48800015 	stw	r2,0(r9)
 50834e4:	00800084 	movi	r2,2
 50834e8:	48800115 	stw	r2,4(r9)
 50834ec:	4091883a 	add	r8,r8,r2
 50834f0:	18c00044 	addi	r3,r3,1
 50834f4:	da011d15 	stw	r8,1140(sp)
 50834f8:	d8c11c15 	stw	r3,1136(sp)
 50834fc:	008001c4 	movi	r2,7
 5083500:	10c18116 	blt	r2,r3,5083b08 <___vfprintf_internal_r+0x10ac>
 5083504:	4a400204 	addi	r9,r9,8
 5083508:	d9012f17 	ldw	r4,1212(sp)
 508350c:	00802004 	movi	r2,128
 5083510:	2080fc26 	beq	r4,r2,5083904 <___vfprintf_internal_r+0xea8>
 5083514:	d8813117 	ldw	r2,1220(sp)
 5083518:	d9012b17 	ldw	r4,1196(sp)
 508351c:	112fc83a 	sub	r23,r2,r4
 5083520:	05c02a0e 	bge	zero,r23,50835cc <___vfprintf_internal_r+0xb70>
 5083524:	07000404 	movi	fp,16
 5083528:	05014274 	movhi	r20,1289
 508352c:	a53c4d84 	addi	r20,r20,-3786
 5083530:	e5c01d0e 	bge	fp,r23,50835a8 <___vfprintf_internal_r+0xb4c>
 5083534:	dc812a15 	stw	r18,1192(sp)
 5083538:	058001c4 	movi	r22,7
 508353c:	a025883a 	mov	r18,r20
 5083540:	8029883a 	mov	r20,r16
 5083544:	dc012917 	ldw	r16,1188(sp)
 5083548:	00000306 	br	5083558 <___vfprintf_internal_r+0xafc>
 508354c:	bdfffc04 	addi	r23,r23,-16
 5083550:	4a400204 	addi	r9,r9,8
 5083554:	e5c0110e 	bge	fp,r23,508359c <___vfprintf_internal_r+0xb40>
 5083558:	4c800015 	stw	r18,0(r9)
 508355c:	4f000115 	stw	fp,4(r9)
 5083560:	42000404 	addi	r8,r8,16
 5083564:	18c00044 	addi	r3,r3,1
 5083568:	da011d15 	stw	r8,1140(sp)
 508356c:	d8c11c15 	stw	r3,1136(sp)
 5083570:	b0fff60e 	bge	r22,r3,508354c <___vfprintf_internal_r+0xaf0>
 5083574:	8809883a 	mov	r4,r17
 5083578:	800b883a 	mov	r5,r16
 508357c:	d9811b04 	addi	r6,sp,1132
 5083580:	5082a280 	call	5082a28 <__sprint_r>
 5083584:	103ec81e 	bne	r2,zero,50830a8 <___vfprintf_internal_r+0x64c>
 5083588:	bdfffc04 	addi	r23,r23,-16
 508358c:	da011d17 	ldw	r8,1140(sp)
 5083590:	d8c11c17 	ldw	r3,1136(sp)
 5083594:	da400404 	addi	r9,sp,16
 5083598:	e5ffef16 	blt	fp,r23,5083558 <___vfprintf_internal_r+0xafc>
 508359c:	a021883a 	mov	r16,r20
 50835a0:	9029883a 	mov	r20,r18
 50835a4:	dc812a17 	ldw	r18,1192(sp)
 50835a8:	4d000015 	stw	r20,0(r9)
 50835ac:	4dc00115 	stw	r23,4(r9)
 50835b0:	45d1883a 	add	r8,r8,r23
 50835b4:	18c00044 	addi	r3,r3,1
 50835b8:	da011d15 	stw	r8,1140(sp)
 50835bc:	d8c11c15 	stw	r3,1136(sp)
 50835c0:	008001c4 	movi	r2,7
 50835c4:	10c13e16 	blt	r2,r3,5083ac0 <___vfprintf_internal_r+0x1064>
 50835c8:	4a400204 	addi	r9,r9,8
 50835cc:	8080400c 	andi	r2,r16,256
 50835d0:	1000831e 	bne	r2,zero,50837e0 <___vfprintf_internal_r+0xd84>
 50835d4:	d8812b17 	ldw	r2,1196(sp)
 50835d8:	4cc00015 	stw	r19,0(r9)
 50835dc:	48800115 	stw	r2,4(r9)
 50835e0:	4091883a 	add	r8,r8,r2
 50835e4:	18c00044 	addi	r3,r3,1
 50835e8:	da011d15 	stw	r8,1140(sp)
 50835ec:	d8c11c15 	stw	r3,1136(sp)
 50835f0:	008001c4 	movi	r2,7
 50835f4:	10c05316 	blt	r2,r3,5083744 <___vfprintf_internal_r+0xce8>
 50835f8:	4a400204 	addi	r9,r9,8
 50835fc:	8400010c 	andi	r16,r16,4
 5083600:	80002e26 	beq	r16,zero,50836bc <___vfprintf_internal_r+0xc60>
 5083604:	d8812e17 	ldw	r2,1208(sp)
 5083608:	d8c12817 	ldw	r3,1184(sp)
 508360c:	10e1c83a 	sub	r16,r2,r3
 5083610:	04002a0e 	bge	zero,r16,50836bc <___vfprintf_internal_r+0xc60>
 5083614:	04800404 	movi	r18,16
 5083618:	d8c11c17 	ldw	r3,1136(sp)
 508361c:	05c14274 	movhi	r23,1289
 5083620:	bdfc4984 	addi	r23,r23,-3802
 5083624:	9400170e 	bge	r18,r16,5083684 <___vfprintf_internal_r+0xc28>
 5083628:	04c001c4 	movi	r19,7
 508362c:	dd012917 	ldw	r20,1188(sp)
 5083630:	00000306 	br	5083640 <___vfprintf_internal_r+0xbe4>
 5083634:	843ffc04 	addi	r16,r16,-16
 5083638:	4a400204 	addi	r9,r9,8
 508363c:	9400110e 	bge	r18,r16,5083684 <___vfprintf_internal_r+0xc28>
 5083640:	4dc00015 	stw	r23,0(r9)
 5083644:	4c800115 	stw	r18,4(r9)
 5083648:	42000404 	addi	r8,r8,16
 508364c:	18c00044 	addi	r3,r3,1
 5083650:	da011d15 	stw	r8,1140(sp)
 5083654:	d8c11c15 	stw	r3,1136(sp)
 5083658:	98fff60e 	bge	r19,r3,5083634 <___vfprintf_internal_r+0xbd8>
 508365c:	8809883a 	mov	r4,r17
 5083660:	a00b883a 	mov	r5,r20
 5083664:	d9811b04 	addi	r6,sp,1132
 5083668:	5082a280 	call	5082a28 <__sprint_r>
 508366c:	103e8e1e 	bne	r2,zero,50830a8 <___vfprintf_internal_r+0x64c>
 5083670:	843ffc04 	addi	r16,r16,-16
 5083674:	da011d17 	ldw	r8,1140(sp)
 5083678:	d8c11c17 	ldw	r3,1136(sp)
 508367c:	da400404 	addi	r9,sp,16
 5083680:	943fef16 	blt	r18,r16,5083640 <___vfprintf_internal_r+0xbe4>
 5083684:	4dc00015 	stw	r23,0(r9)
 5083688:	4c000115 	stw	r16,4(r9)
 508368c:	8211883a 	add	r8,r16,r8
 5083690:	18c00044 	addi	r3,r3,1
 5083694:	da011d15 	stw	r8,1140(sp)
 5083698:	d8c11c15 	stw	r3,1136(sp)
 508369c:	008001c4 	movi	r2,7
 50836a0:	10c0060e 	bge	r2,r3,50836bc <___vfprintf_internal_r+0xc60>
 50836a4:	d9412917 	ldw	r5,1188(sp)
 50836a8:	8809883a 	mov	r4,r17
 50836ac:	d9811b04 	addi	r6,sp,1132
 50836b0:	5082a280 	call	5082a28 <__sprint_r>
 50836b4:	103e7c1e 	bne	r2,zero,50830a8 <___vfprintf_internal_r+0x64c>
 50836b8:	da011d17 	ldw	r8,1140(sp)
 50836bc:	dd012817 	ldw	r20,1184(sp)
 50836c0:	d9012e17 	ldw	r4,1208(sp)
 50836c4:	a100010e 	bge	r20,r4,50836cc <___vfprintf_internal_r+0xc70>
 50836c8:	2029883a 	mov	r20,r4
 50836cc:	d8812c17 	ldw	r2,1200(sp)
 50836d0:	1505883a 	add	r2,r2,r20
 50836d4:	d8812c15 	stw	r2,1200(sp)
 50836d8:	4000b91e 	bne	r8,zero,50839c0 <___vfprintf_internal_r+0xf64>
 50836dc:	d8011c15 	stw	zero,1136(sp)
 50836e0:	a8800007 	ldb	r2,0(r21)
 50836e4:	da400404 	addi	r9,sp,16
 50836e8:	103d141e 	bne	r2,zero,5082b3c <___vfprintf_internal_r+0xe0>
 50836ec:	a825883a 	mov	r18,r21
 50836f0:	003d2a06 	br	5082b9c <___vfprintf_internal_r+0x140>
 50836f4:	d9412917 	ldw	r5,1188(sp)
 50836f8:	8809883a 	mov	r4,r17
 50836fc:	d9811b04 	addi	r6,sp,1132
 5083700:	5082a280 	call	5082a28 <__sprint_r>
 5083704:	103e681e 	bne	r2,zero,50830a8 <___vfprintf_internal_r+0x64c>
 5083708:	da011d17 	ldw	r8,1140(sp)
 508370c:	da400404 	addi	r9,sp,16
 5083710:	8080004c 	andi	r2,r16,1
 5083714:	103fb926 	beq	r2,zero,50835fc <___vfprintf_internal_r+0xba0>
 5083718:	d8c11c17 	ldw	r3,1136(sp)
 508371c:	d9013717 	ldw	r4,1244(sp)
 5083720:	00800044 	movi	r2,1
 5083724:	48800115 	stw	r2,4(r9)
 5083728:	49000015 	stw	r4,0(r9)
 508372c:	4091883a 	add	r8,r8,r2
 5083730:	1887883a 	add	r3,r3,r2
 5083734:	da011d15 	stw	r8,1140(sp)
 5083738:	d8c11c15 	stw	r3,1136(sp)
 508373c:	008001c4 	movi	r2,7
 5083740:	10ffad0e 	bge	r2,r3,50835f8 <___vfprintf_internal_r+0xb9c>
 5083744:	d9412917 	ldw	r5,1188(sp)
 5083748:	8809883a 	mov	r4,r17
 508374c:	d9811b04 	addi	r6,sp,1132
 5083750:	5082a280 	call	5082a28 <__sprint_r>
 5083754:	103e541e 	bne	r2,zero,50830a8 <___vfprintf_internal_r+0x64c>
 5083758:	da400404 	addi	r9,sp,16
 508375c:	da011d17 	ldw	r8,1140(sp)
 5083760:	003fa606 	br	50835fc <___vfprintf_internal_r+0xba0>
 5083764:	18803fcc 	andi	r2,r3,255
 5083768:	00c00044 	movi	r3,1
 508376c:	10c10126 	beq	r2,r3,5083b74 <___vfprintf_internal_r+0x1118>
 5083770:	00c00084 	movi	r3,2
 5083774:	10c0f026 	beq	r2,r3,5083b38 <___vfprintf_internal_r+0x10dc>
 5083778:	d8c10dc4 	addi	r3,sp,1079
 508377c:	b808d0fa 	srli	r4,r23,3
 5083780:	b00a977a 	slli	r5,r22,29
 5083784:	b02cd0fa 	srli	r22,r22,3
 5083788:	bdc001cc 	andi	r23,r23,7
 508378c:	b8800c04 	addi	r2,r23,48
 5083790:	292eb03a 	or	r23,r5,r4
 5083794:	18800005 	stb	r2,0(r3)
 5083798:	bd88b03a 	or	r4,r23,r22
 508379c:	1827883a 	mov	r19,r3
 50837a0:	18ffffc4 	addi	r3,r3,-1
 50837a4:	203ff51e 	bne	r4,zero,508377c <___vfprintf_internal_r+0xd20>
 50837a8:	8100004c 	andi	r4,r16,1
 50837ac:	980b883a 	mov	r5,r19
 50837b0:	20000726 	beq	r4,zero,50837d0 <___vfprintf_internal_r+0xd74>
 50837b4:	10803fcc 	andi	r2,r2,255
 50837b8:	1080201c 	xori	r2,r2,128
 50837bc:	10bfe004 	addi	r2,r2,-128
 50837c0:	01000c04 	movi	r4,48
 50837c4:	11000226 	beq	r2,r4,50837d0 <___vfprintf_internal_r+0xd74>
 50837c8:	1827883a 	mov	r19,r3
 50837cc:	293fffc5 	stb	r4,-1(r5)
 50837d0:	d8812717 	ldw	r2,1180(sp)
 50837d4:	14c5c83a 	sub	r2,r2,r19
 50837d8:	d8812b15 	stw	r2,1196(sp)
 50837dc:	003d8406 	br	5082df0 <___vfprintf_internal_r+0x394>
 50837e0:	00801944 	movi	r2,101
 50837e4:	14807c0e 	bge	r2,r18,50839d8 <___vfprintf_internal_r+0xf7c>
 50837e8:	d9013317 	ldw	r4,1228(sp)
 50837ec:	d9413417 	ldw	r5,1232(sp)
 50837f0:	000d883a 	mov	r6,zero
 50837f4:	000f883a 	mov	r7,zero
 50837f8:	d8c13b15 	stw	r3,1260(sp)
 50837fc:	da013a15 	stw	r8,1256(sp)
 5083800:	da413c15 	stw	r9,1264(sp)
 5083804:	508b0fc0 	call	508b0fc <__eqdf2>
 5083808:	d8c13b17 	ldw	r3,1260(sp)
 508380c:	da013a17 	ldw	r8,1256(sp)
 5083810:	da413c17 	ldw	r9,1264(sp)
 5083814:	1001001e 	bne	r2,zero,5083c18 <___vfprintf_internal_r+0x11bc>
 5083818:	00814274 	movhi	r2,1289
 508381c:	10bc4904 	addi	r2,r2,-3804
 5083820:	48800015 	stw	r2,0(r9)
 5083824:	00800044 	movi	r2,1
 5083828:	48800115 	stw	r2,4(r9)
 508382c:	4091883a 	add	r8,r8,r2
 5083830:	1887883a 	add	r3,r3,r2
 5083834:	da011d15 	stw	r8,1140(sp)
 5083838:	d8c11c15 	stw	r3,1136(sp)
 508383c:	008001c4 	movi	r2,7
 5083840:	10c1dd16 	blt	r2,r3,5083fb8 <___vfprintf_internal_r+0x155c>
 5083844:	4a400204 	addi	r9,r9,8
 5083848:	d8812417 	ldw	r2,1168(sp)
 508384c:	d8c13217 	ldw	r3,1224(sp)
 5083850:	10c00216 	blt	r2,r3,508385c <___vfprintf_internal_r+0xe00>
 5083854:	8080004c 	andi	r2,r16,1
 5083858:	103f6826 	beq	r2,zero,50835fc <___vfprintf_internal_r+0xba0>
 508385c:	d8c11c17 	ldw	r3,1136(sp)
 5083860:	d9013717 	ldw	r4,1244(sp)
 5083864:	00800044 	movi	r2,1
 5083868:	48800115 	stw	r2,4(r9)
 508386c:	49000015 	stw	r4,0(r9)
 5083870:	4091883a 	add	r8,r8,r2
 5083874:	1887883a 	add	r3,r3,r2
 5083878:	da011d15 	stw	r8,1140(sp)
 508387c:	d8c11c15 	stw	r3,1136(sp)
 5083880:	008001c4 	movi	r2,7
 5083884:	10c2af16 	blt	r2,r3,5084344 <___vfprintf_internal_r+0x18e8>
 5083888:	4a400204 	addi	r9,r9,8
 508388c:	d8813217 	ldw	r2,1224(sp)
 5083890:	14bfffc4 	addi	r18,r2,-1
 5083894:	04bf590e 	bge	zero,r18,50835fc <___vfprintf_internal_r+0xba0>
 5083898:	04c00404 	movi	r19,16
 508389c:	d8c11c17 	ldw	r3,1136(sp)
 50838a0:	05014274 	movhi	r20,1289
 50838a4:	a53c4d84 	addi	r20,r20,-3786
 50838a8:	9c81630e 	bge	r19,r18,5083e38 <___vfprintf_internal_r+0x13dc>
 50838ac:	058001c4 	movi	r22,7
 50838b0:	ddc12917 	ldw	r23,1188(sp)
 50838b4:	00000306 	br	50838c4 <___vfprintf_internal_r+0xe68>
 50838b8:	4a400204 	addi	r9,r9,8
 50838bc:	94bffc04 	addi	r18,r18,-16
 50838c0:	9c815d0e 	bge	r19,r18,5083e38 <___vfprintf_internal_r+0x13dc>
 50838c4:	4d000015 	stw	r20,0(r9)
 50838c8:	4cc00115 	stw	r19,4(r9)
 50838cc:	42000404 	addi	r8,r8,16
 50838d0:	18c00044 	addi	r3,r3,1
 50838d4:	da011d15 	stw	r8,1140(sp)
 50838d8:	d8c11c15 	stw	r3,1136(sp)
 50838dc:	b0fff60e 	bge	r22,r3,50838b8 <___vfprintf_internal_r+0xe5c>
 50838e0:	8809883a 	mov	r4,r17
 50838e4:	b80b883a 	mov	r5,r23
 50838e8:	d9811b04 	addi	r6,sp,1132
 50838ec:	5082a280 	call	5082a28 <__sprint_r>
 50838f0:	103ded1e 	bne	r2,zero,50830a8 <___vfprintf_internal_r+0x64c>
 50838f4:	da011d17 	ldw	r8,1140(sp)
 50838f8:	d8c11c17 	ldw	r3,1136(sp)
 50838fc:	da400404 	addi	r9,sp,16
 5083900:	003fee06 	br	50838bc <___vfprintf_internal_r+0xe60>
 5083904:	d8812e17 	ldw	r2,1208(sp)
 5083908:	d9012817 	ldw	r4,1184(sp)
 508390c:	112fc83a 	sub	r23,r2,r4
 5083910:	05ff000e 	bge	zero,r23,5083514 <___vfprintf_internal_r+0xab8>
 5083914:	07000404 	movi	fp,16
 5083918:	05014274 	movhi	r20,1289
 508391c:	a53c4d84 	addi	r20,r20,-3786
 5083920:	e5c01d0e 	bge	fp,r23,5083998 <___vfprintf_internal_r+0xf3c>
 5083924:	dc812a15 	stw	r18,1192(sp)
 5083928:	058001c4 	movi	r22,7
 508392c:	a025883a 	mov	r18,r20
 5083930:	8029883a 	mov	r20,r16
 5083934:	dc012917 	ldw	r16,1188(sp)
 5083938:	00000306 	br	5083948 <___vfprintf_internal_r+0xeec>
 508393c:	bdfffc04 	addi	r23,r23,-16
 5083940:	4a400204 	addi	r9,r9,8
 5083944:	e5c0110e 	bge	fp,r23,508398c <___vfprintf_internal_r+0xf30>
 5083948:	4c800015 	stw	r18,0(r9)
 508394c:	4f000115 	stw	fp,4(r9)
 5083950:	42000404 	addi	r8,r8,16
 5083954:	18c00044 	addi	r3,r3,1
 5083958:	da011d15 	stw	r8,1140(sp)
 508395c:	d8c11c15 	stw	r3,1136(sp)
 5083960:	b0fff60e 	bge	r22,r3,508393c <___vfprintf_internal_r+0xee0>
 5083964:	8809883a 	mov	r4,r17
 5083968:	800b883a 	mov	r5,r16
 508396c:	d9811b04 	addi	r6,sp,1132
 5083970:	5082a280 	call	5082a28 <__sprint_r>
 5083974:	103dcc1e 	bne	r2,zero,50830a8 <___vfprintf_internal_r+0x64c>
 5083978:	bdfffc04 	addi	r23,r23,-16
 508397c:	da011d17 	ldw	r8,1140(sp)
 5083980:	d8c11c17 	ldw	r3,1136(sp)
 5083984:	da400404 	addi	r9,sp,16
 5083988:	e5ffef16 	blt	fp,r23,5083948 <___vfprintf_internal_r+0xeec>
 508398c:	a021883a 	mov	r16,r20
 5083990:	9029883a 	mov	r20,r18
 5083994:	dc812a17 	ldw	r18,1192(sp)
 5083998:	4d000015 	stw	r20,0(r9)
 508399c:	4dc00115 	stw	r23,4(r9)
 50839a0:	45d1883a 	add	r8,r8,r23
 50839a4:	18c00044 	addi	r3,r3,1
 50839a8:	da011d15 	stw	r8,1140(sp)
 50839ac:	d8c11c15 	stw	r3,1136(sp)
 50839b0:	008001c4 	movi	r2,7
 50839b4:	10c11716 	blt	r2,r3,5083e14 <___vfprintf_internal_r+0x13b8>
 50839b8:	4a400204 	addi	r9,r9,8
 50839bc:	003ed506 	br	5083514 <___vfprintf_internal_r+0xab8>
 50839c0:	d9412917 	ldw	r5,1188(sp)
 50839c4:	8809883a 	mov	r4,r17
 50839c8:	d9811b04 	addi	r6,sp,1132
 50839cc:	5082a280 	call	5082a28 <__sprint_r>
 50839d0:	103f4226 	beq	r2,zero,50836dc <___vfprintf_internal_r+0xc80>
 50839d4:	003db406 	br	50830a8 <___vfprintf_internal_r+0x64c>
 50839d8:	d9013217 	ldw	r4,1224(sp)
 50839dc:	00800044 	movi	r2,1
 50839e0:	4cc00015 	stw	r19,0(r9)
 50839e4:	1100e10e 	bge	r2,r4,5083d6c <___vfprintf_internal_r+0x1310>
 50839e8:	00800044 	movi	r2,1
 50839ec:	48800115 	stw	r2,4(r9)
 50839f0:	4091883a 	add	r8,r8,r2
 50839f4:	1887883a 	add	r3,r3,r2
 50839f8:	da011d15 	stw	r8,1140(sp)
 50839fc:	d8c11c15 	stw	r3,1136(sp)
 5083a00:	008001c4 	movi	r2,7
 5083a04:	10c0ed16 	blt	r2,r3,5083dbc <___vfprintf_internal_r+0x1360>
 5083a08:	4a400204 	addi	r9,r9,8
 5083a0c:	d8813717 	ldw	r2,1244(sp)
 5083a10:	48800015 	stw	r2,0(r9)
 5083a14:	00800044 	movi	r2,1
 5083a18:	48800115 	stw	r2,4(r9)
 5083a1c:	4091883a 	add	r8,r8,r2
 5083a20:	1887883a 	add	r3,r3,r2
 5083a24:	da011d15 	stw	r8,1140(sp)
 5083a28:	d8c11c15 	stw	r3,1136(sp)
 5083a2c:	008001c4 	movi	r2,7
 5083a30:	10c0eb16 	blt	r2,r3,5083de0 <___vfprintf_internal_r+0x1384>
 5083a34:	4c800204 	addi	r18,r9,8
 5083a38:	d9013317 	ldw	r4,1228(sp)
 5083a3c:	d9413417 	ldw	r5,1232(sp)
 5083a40:	000d883a 	mov	r6,zero
 5083a44:	000f883a 	mov	r7,zero
 5083a48:	d8c13b15 	stw	r3,1260(sp)
 5083a4c:	da013a15 	stw	r8,1256(sp)
 5083a50:	508b1580 	call	508b158 <__nedf2>
 5083a54:	d8c13b17 	ldw	r3,1260(sp)
 5083a58:	da013a17 	ldw	r8,1256(sp)
 5083a5c:	1000a626 	beq	r2,zero,5083cf8 <___vfprintf_internal_r+0x129c>
 5083a60:	d9013217 	ldw	r4,1224(sp)
 5083a64:	9cc00044 	addi	r19,r19,1
 5083a68:	94c00015 	stw	r19,0(r18)
 5083a6c:	20bfffc4 	addi	r2,r4,-1
 5083a70:	90800115 	stw	r2,4(r18)
 5083a74:	4091883a 	add	r8,r8,r2
 5083a78:	18c00044 	addi	r3,r3,1
 5083a7c:	da011d15 	stw	r8,1140(sp)
 5083a80:	d8c11c15 	stw	r3,1136(sp)
 5083a84:	008001c4 	movi	r2,7
 5083a88:	10c0c316 	blt	r2,r3,5083d98 <___vfprintf_internal_r+0x133c>
 5083a8c:	94800204 	addi	r18,r18,8
 5083a90:	d9013517 	ldw	r4,1236(sp)
 5083a94:	d8811fc4 	addi	r2,sp,1151
 5083a98:	90800015 	stw	r2,0(r18)
 5083a9c:	91000115 	stw	r4,4(r18)
 5083aa0:	4111883a 	add	r8,r8,r4
 5083aa4:	18c00044 	addi	r3,r3,1
 5083aa8:	da011d15 	stw	r8,1140(sp)
 5083aac:	d8c11c15 	stw	r3,1136(sp)
 5083ab0:	008001c4 	movi	r2,7
 5083ab4:	10ff2316 	blt	r2,r3,5083744 <___vfprintf_internal_r+0xce8>
 5083ab8:	92400204 	addi	r9,r18,8
 5083abc:	003ecf06 	br	50835fc <___vfprintf_internal_r+0xba0>
 5083ac0:	d9412917 	ldw	r5,1188(sp)
 5083ac4:	8809883a 	mov	r4,r17
 5083ac8:	d9811b04 	addi	r6,sp,1132
 5083acc:	5082a280 	call	5082a28 <__sprint_r>
 5083ad0:	103d751e 	bne	r2,zero,50830a8 <___vfprintf_internal_r+0x64c>
 5083ad4:	da011d17 	ldw	r8,1140(sp)
 5083ad8:	d8c11c17 	ldw	r3,1136(sp)
 5083adc:	da400404 	addi	r9,sp,16
 5083ae0:	003eba06 	br	50835cc <___vfprintf_internal_r+0xb70>
 5083ae4:	d9412917 	ldw	r5,1188(sp)
 5083ae8:	8809883a 	mov	r4,r17
 5083aec:	d9811b04 	addi	r6,sp,1132
 5083af0:	5082a280 	call	5082a28 <__sprint_r>
 5083af4:	103d6c1e 	bne	r2,zero,50830a8 <___vfprintf_internal_r+0x64c>
 5083af8:	da011d17 	ldw	r8,1140(sp)
 5083afc:	d8c11c17 	ldw	r3,1136(sp)
 5083b00:	da400404 	addi	r9,sp,16
 5083b04:	003e7306 	br	50834d4 <___vfprintf_internal_r+0xa78>
 5083b08:	d9412917 	ldw	r5,1188(sp)
 5083b0c:	8809883a 	mov	r4,r17
 5083b10:	d9811b04 	addi	r6,sp,1132
 5083b14:	5082a280 	call	5082a28 <__sprint_r>
 5083b18:	103d631e 	bne	r2,zero,50830a8 <___vfprintf_internal_r+0x64c>
 5083b1c:	da011d17 	ldw	r8,1140(sp)
 5083b20:	d8c11c17 	ldw	r3,1136(sp)
 5083b24:	da400404 	addi	r9,sp,16
 5083b28:	003e7706 	br	5083508 <___vfprintf_internal_r+0xaac>
 5083b2c:	d8012b15 	stw	zero,1196(sp)
 5083b30:	dcc10e04 	addi	r19,sp,1080
 5083b34:	003cae06 	br	5082df0 <___vfprintf_internal_r+0x394>
 5083b38:	d9413617 	ldw	r5,1240(sp)
 5083b3c:	d8810dc4 	addi	r2,sp,1079
 5083b40:	b8c003cc 	andi	r3,r23,15
 5083b44:	b008973a 	slli	r4,r22,28
 5083b48:	28c7883a 	add	r3,r5,r3
 5083b4c:	b82ed13a 	srli	r23,r23,4
 5083b50:	18c00003 	ldbu	r3,0(r3)
 5083b54:	b02cd13a 	srli	r22,r22,4
 5083b58:	25eeb03a 	or	r23,r4,r23
 5083b5c:	10c00005 	stb	r3,0(r2)
 5083b60:	bd86b03a 	or	r3,r23,r22
 5083b64:	1027883a 	mov	r19,r2
 5083b68:	10bfffc4 	addi	r2,r2,-1
 5083b6c:	183ff41e 	bne	r3,zero,5083b40 <___vfprintf_internal_r+0x10e4>
 5083b70:	003f1706 	br	50837d0 <___vfprintf_internal_r+0xd74>
 5083b74:	b0025826 	beq	r22,zero,50844d8 <___vfprintf_internal_r+0x1a7c>
 5083b78:	b807883a 	mov	r3,r23
 5083b7c:	d8810dc4 	addi	r2,sp,1079
 5083b80:	882f883a 	mov	r23,r17
 5083b84:	04c00244 	movi	r19,9
 5083b88:	8023883a 	mov	r17,r16
 5083b8c:	da412815 	stw	r9,1184(sp)
 5083b90:	1821883a 	mov	r16,r3
 5083b94:	8009883a 	mov	r4,r16
 5083b98:	b00b883a 	mov	r5,r22
 5083b9c:	01800284 	movi	r6,10
 5083ba0:	000f883a 	mov	r7,zero
 5083ba4:	1029883a 	mov	r20,r2
 5083ba8:	508a2d00 	call	508a2d0 <__umoddi3>
 5083bac:	10800c04 	addi	r2,r2,48
 5083bb0:	8009883a 	mov	r4,r16
 5083bb4:	b00b883a 	mov	r5,r22
 5083bb8:	a0800005 	stb	r2,0(r20)
 5083bbc:	01800284 	movi	r6,10
 5083bc0:	000f883a 	mov	r7,zero
 5083bc4:	5089d080 	call	5089d08 <__udivdi3>
 5083bc8:	1021883a 	mov	r16,r2
 5083bcc:	182d883a 	mov	r22,r3
 5083bd0:	a0bfffc4 	addi	r2,r20,-1
 5083bd4:	183fef1e 	bne	r3,zero,5083b94 <___vfprintf_internal_r+0x1138>
 5083bd8:	9c3fee36 	bltu	r19,r16,5083b94 <___vfprintf_internal_r+0x1138>
 5083bdc:	da412817 	ldw	r9,1184(sp)
 5083be0:	8005883a 	mov	r2,r16
 5083be4:	8821883a 	mov	r16,r17
 5083be8:	b823883a 	mov	r17,r23
 5083bec:	102f883a 	mov	r23,r2
 5083bf0:	d8812717 	ldw	r2,1180(sp)
 5083bf4:	a4ffffc4 	addi	r19,r20,-1
 5083bf8:	bdc00c04 	addi	r23,r23,48
 5083bfc:	14c5c83a 	sub	r2,r2,r19
 5083c00:	a5ffffc5 	stb	r23,-1(r20)
 5083c04:	d8812b15 	stw	r2,1196(sp)
 5083c08:	003c7906 	br	5082df0 <___vfprintf_internal_r+0x394>
 5083c0c:	00c00044 	movi	r3,1
 5083c10:	bd84b03a 	or	r2,r23,r22
 5083c14:	003c6806 	br	5082db8 <___vfprintf_internal_r+0x35c>
 5083c18:	dc812417 	ldw	r18,1168(sp)
 5083c1c:	0480ee0e 	bge	zero,r18,5083fd8 <___vfprintf_internal_r+0x157c>
 5083c20:	d9013217 	ldw	r4,1224(sp)
 5083c24:	4cc00015 	stw	r19,0(r9)
 5083c28:	9100c616 	blt	r18,r4,5083f44 <___vfprintf_internal_r+0x14e8>
 5083c2c:	49000115 	stw	r4,4(r9)
 5083c30:	4111883a 	add	r8,r8,r4
 5083c34:	18c00044 	addi	r3,r3,1
 5083c38:	da011d15 	stw	r8,1140(sp)
 5083c3c:	d8c11c15 	stw	r3,1136(sp)
 5083c40:	008001c4 	movi	r2,7
 5083c44:	10c20916 	blt	r2,r3,508446c <___vfprintf_internal_r+0x1a10>
 5083c48:	4a400204 	addi	r9,r9,8
 5083c4c:	d8813217 	ldw	r2,1224(sp)
 5083c50:	90a5c83a 	sub	r18,r18,r2
 5083c54:	04beae0e 	bge	zero,r18,5083710 <___vfprintf_internal_r+0xcb4>
 5083c58:	04c00404 	movi	r19,16
 5083c5c:	d8c11c17 	ldw	r3,1136(sp)
 5083c60:	05014274 	movhi	r20,1289
 5083c64:	a53c4d84 	addi	r20,r20,-3786
 5083c68:	9c81be0e 	bge	r19,r18,5084364 <___vfprintf_internal_r+0x1908>
 5083c6c:	058001c4 	movi	r22,7
 5083c70:	ddc12917 	ldw	r23,1188(sp)
 5083c74:	00000306 	br	5083c84 <___vfprintf_internal_r+0x1228>
 5083c78:	4a400204 	addi	r9,r9,8
 5083c7c:	94bffc04 	addi	r18,r18,-16
 5083c80:	9c81b80e 	bge	r19,r18,5084364 <___vfprintf_internal_r+0x1908>
 5083c84:	4d000015 	stw	r20,0(r9)
 5083c88:	4cc00115 	stw	r19,4(r9)
 5083c8c:	42000404 	addi	r8,r8,16
 5083c90:	18c00044 	addi	r3,r3,1
 5083c94:	da011d15 	stw	r8,1140(sp)
 5083c98:	d8c11c15 	stw	r3,1136(sp)
 5083c9c:	b0fff60e 	bge	r22,r3,5083c78 <___vfprintf_internal_r+0x121c>
 5083ca0:	8809883a 	mov	r4,r17
 5083ca4:	b80b883a 	mov	r5,r23
 5083ca8:	d9811b04 	addi	r6,sp,1132
 5083cac:	5082a280 	call	5082a28 <__sprint_r>
 5083cb0:	103cfd1e 	bne	r2,zero,50830a8 <___vfprintf_internal_r+0x64c>
 5083cb4:	da011d17 	ldw	r8,1140(sp)
 5083cb8:	d8c11c17 	ldw	r3,1136(sp)
 5083cbc:	da400404 	addi	r9,sp,16
 5083cc0:	003fee06 	br	5083c7c <___vfprintf_internal_r+0x1220>
 5083cc4:	d9412917 	ldw	r5,1188(sp)
 5083cc8:	8809883a 	mov	r4,r17
 5083ccc:	d9811b04 	addi	r6,sp,1132
 5083cd0:	5082a280 	call	5082a28 <__sprint_r>
 5083cd4:	103cf41e 	bne	r2,zero,50830a8 <___vfprintf_internal_r+0x64c>
 5083cd8:	da011d17 	ldw	r8,1140(sp)
 5083cdc:	d8c11c17 	ldw	r3,1136(sp)
 5083ce0:	da400404 	addi	r9,sp,16
 5083ce4:	003dee06 	br	50834a0 <___vfprintf_internal_r+0xa44>
 5083ce8:	00c00084 	movi	r3,2
 5083cec:	bd84b03a 	or	r2,r23,r22
 5083cf0:	d8012585 	stb	zero,1174(sp)
 5083cf4:	003c3006 	br	5082db8 <___vfprintf_internal_r+0x35c>
 5083cf8:	d8813217 	ldw	r2,1224(sp)
 5083cfc:	14ffffc4 	addi	r19,r2,-1
 5083d00:	04ff630e 	bge	zero,r19,5083a90 <___vfprintf_internal_r+0x1034>
 5083d04:	05800404 	movi	r22,16
 5083d08:	05014274 	movhi	r20,1289
 5083d0c:	a53c4d84 	addi	r20,r20,-3786
 5083d10:	b4c03c0e 	bge	r22,r19,5083e04 <___vfprintf_internal_r+0x13a8>
 5083d14:	05c001c4 	movi	r23,7
 5083d18:	df012917 	ldw	fp,1188(sp)
 5083d1c:	00000306 	br	5083d2c <___vfprintf_internal_r+0x12d0>
 5083d20:	94800204 	addi	r18,r18,8
 5083d24:	9cfffc04 	addi	r19,r19,-16
 5083d28:	b4c0360e 	bge	r22,r19,5083e04 <___vfprintf_internal_r+0x13a8>
 5083d2c:	95000015 	stw	r20,0(r18)
 5083d30:	95800115 	stw	r22,4(r18)
 5083d34:	42000404 	addi	r8,r8,16
 5083d38:	18c00044 	addi	r3,r3,1
 5083d3c:	da011d15 	stw	r8,1140(sp)
 5083d40:	d8c11c15 	stw	r3,1136(sp)
 5083d44:	b8fff60e 	bge	r23,r3,5083d20 <___vfprintf_internal_r+0x12c4>
 5083d48:	8809883a 	mov	r4,r17
 5083d4c:	e00b883a 	mov	r5,fp
 5083d50:	d9811b04 	addi	r6,sp,1132
 5083d54:	5082a280 	call	5082a28 <__sprint_r>
 5083d58:	103cd31e 	bne	r2,zero,50830a8 <___vfprintf_internal_r+0x64c>
 5083d5c:	da011d17 	ldw	r8,1140(sp)
 5083d60:	d8c11c17 	ldw	r3,1136(sp)
 5083d64:	dc800404 	addi	r18,sp,16
 5083d68:	003fee06 	br	5083d24 <___vfprintf_internal_r+0x12c8>
 5083d6c:	8088703a 	and	r4,r16,r2
 5083d70:	203f1d1e 	bne	r4,zero,50839e8 <___vfprintf_internal_r+0xf8c>
 5083d74:	48800115 	stw	r2,4(r9)
 5083d78:	42000044 	addi	r8,r8,1
 5083d7c:	18c00044 	addi	r3,r3,1
 5083d80:	da011d15 	stw	r8,1140(sp)
 5083d84:	d8c11c15 	stw	r3,1136(sp)
 5083d88:	008001c4 	movi	r2,7
 5083d8c:	10c00216 	blt	r2,r3,5083d98 <___vfprintf_internal_r+0x133c>
 5083d90:	4c800204 	addi	r18,r9,8
 5083d94:	003f3e06 	br	5083a90 <___vfprintf_internal_r+0x1034>
 5083d98:	d9412917 	ldw	r5,1188(sp)
 5083d9c:	8809883a 	mov	r4,r17
 5083da0:	d9811b04 	addi	r6,sp,1132
 5083da4:	5082a280 	call	5082a28 <__sprint_r>
 5083da8:	103cbf1e 	bne	r2,zero,50830a8 <___vfprintf_internal_r+0x64c>
 5083dac:	dc800404 	addi	r18,sp,16
 5083db0:	da011d17 	ldw	r8,1140(sp)
 5083db4:	d8c11c17 	ldw	r3,1136(sp)
 5083db8:	003f3506 	br	5083a90 <___vfprintf_internal_r+0x1034>
 5083dbc:	d9412917 	ldw	r5,1188(sp)
 5083dc0:	8809883a 	mov	r4,r17
 5083dc4:	d9811b04 	addi	r6,sp,1132
 5083dc8:	5082a280 	call	5082a28 <__sprint_r>
 5083dcc:	103cb61e 	bne	r2,zero,50830a8 <___vfprintf_internal_r+0x64c>
 5083dd0:	da011d17 	ldw	r8,1140(sp)
 5083dd4:	d8c11c17 	ldw	r3,1136(sp)
 5083dd8:	da400404 	addi	r9,sp,16
 5083ddc:	003f0b06 	br	5083a0c <___vfprintf_internal_r+0xfb0>
 5083de0:	d9412917 	ldw	r5,1188(sp)
 5083de4:	8809883a 	mov	r4,r17
 5083de8:	d9811b04 	addi	r6,sp,1132
 5083dec:	5082a280 	call	5082a28 <__sprint_r>
 5083df0:	103cad1e 	bne	r2,zero,50830a8 <___vfprintf_internal_r+0x64c>
 5083df4:	da011d17 	ldw	r8,1140(sp)
 5083df8:	d8c11c17 	ldw	r3,1136(sp)
 5083dfc:	dc800404 	addi	r18,sp,16
 5083e00:	003f0d06 	br	5083a38 <___vfprintf_internal_r+0xfdc>
 5083e04:	95000015 	stw	r20,0(r18)
 5083e08:	94c00115 	stw	r19,4(r18)
 5083e0c:	44d1883a 	add	r8,r8,r19
 5083e10:	003f1906 	br	5083a78 <___vfprintf_internal_r+0x101c>
 5083e14:	d9412917 	ldw	r5,1188(sp)
 5083e18:	8809883a 	mov	r4,r17
 5083e1c:	d9811b04 	addi	r6,sp,1132
 5083e20:	5082a280 	call	5082a28 <__sprint_r>
 5083e24:	103ca01e 	bne	r2,zero,50830a8 <___vfprintf_internal_r+0x64c>
 5083e28:	da011d17 	ldw	r8,1140(sp)
 5083e2c:	d8c11c17 	ldw	r3,1136(sp)
 5083e30:	da400404 	addi	r9,sp,16
 5083e34:	003db706 	br	5083514 <___vfprintf_internal_r+0xab8>
 5083e38:	4d000015 	stw	r20,0(r9)
 5083e3c:	4c800115 	stw	r18,4(r9)
 5083e40:	4491883a 	add	r8,r8,r18
 5083e44:	003de706 	br	50835e4 <___vfprintf_internal_r+0xb88>
 5083e48:	8080100c 	andi	r2,r16,64
 5083e4c:	10010226 	beq	r2,zero,5084258 <___vfprintf_internal_r+0x17fc>
 5083e50:	d8812d17 	ldw	r2,1204(sp)
 5083e54:	002d883a 	mov	r22,zero
 5083e58:	00c00044 	movi	r3,1
 5083e5c:	15c0000b 	ldhu	r23,0(r2)
 5083e60:	10800104 	addi	r2,r2,4
 5083e64:	d8812d15 	stw	r2,1204(sp)
 5083e68:	d8012585 	stb	zero,1174(sp)
 5083e6c:	b805883a 	mov	r2,r23
 5083e70:	003bd106 	br	5082db8 <___vfprintf_internal_r+0x35c>
 5083e74:	d9012d17 	ldw	r4,1204(sp)
 5083e78:	25800017 	ldw	r22,0(r4)
 5083e7c:	25000117 	ldw	r20,4(r4)
 5083e80:	21000204 	addi	r4,r4,8
 5083e84:	d9012d15 	stw	r4,1204(sp)
 5083e88:	dd813315 	stw	r22,1228(sp)
 5083e8c:	dd013415 	stw	r20,1232(sp)
 5083e90:	003d2b06 	br	5083340 <___vfprintf_internal_r+0x8e4>
 5083e94:	8080100c 	andi	r2,r16,64
 5083e98:	1000fe26 	beq	r2,zero,5084294 <___vfprintf_internal_r+0x1838>
 5083e9c:	d9012d17 	ldw	r4,1204(sp)
 5083ea0:	002d883a 	mov	r22,zero
 5083ea4:	0007883a 	mov	r3,zero
 5083ea8:	25c0000b 	ldhu	r23,0(r4)
 5083eac:	21000104 	addi	r4,r4,4
 5083eb0:	d9012d15 	stw	r4,1204(sp)
 5083eb4:	b805883a 	mov	r2,r23
 5083eb8:	d8012585 	stb	zero,1174(sp)
 5083ebc:	003bbe06 	br	5082db8 <___vfprintf_internal_r+0x35c>
 5083ec0:	8080100c 	andi	r2,r16,64
 5083ec4:	1000ed26 	beq	r2,zero,508427c <___vfprintf_internal_r+0x1820>
 5083ec8:	d9012d17 	ldw	r4,1204(sp)
 5083ecc:	002d883a 	mov	r22,zero
 5083ed0:	25c0000b 	ldhu	r23,0(r4)
 5083ed4:	21000104 	addi	r4,r4,4
 5083ed8:	d9012d15 	stw	r4,1204(sp)
 5083edc:	003cd206 	br	5083228 <___vfprintf_internal_r+0x7cc>
 5083ee0:	00c00084 	movi	r3,2
 5083ee4:	d8012585 	stb	zero,1174(sp)
 5083ee8:	003bb306 	br	5082db8 <___vfprintf_internal_r+0x35c>
 5083eec:	8080040c 	andi	r2,r16,16
 5083ef0:	1000f11e 	bne	r2,zero,50842b8 <___vfprintf_internal_r+0x185c>
 5083ef4:	8400100c 	andi	r16,r16,64
 5083ef8:	80015526 	beq	r16,zero,5084450 <___vfprintf_internal_r+0x19f4>
 5083efc:	da012d17 	ldw	r8,1204(sp)
 5083f00:	d8c12c17 	ldw	r3,1200(sp)
 5083f04:	40800017 	ldw	r2,0(r8)
 5083f08:	42000104 	addi	r8,r8,4
 5083f0c:	da012d15 	stw	r8,1204(sp)
 5083f10:	10c0000d 	sth	r3,0(r2)
 5083f14:	003b0706 	br	5082b34 <___vfprintf_internal_r+0xd8>
 5083f18:	8080100c 	andi	r2,r16,64
 5083f1c:	1000c726 	beq	r2,zero,508423c <___vfprintf_internal_r+0x17e0>
 5083f20:	da012d17 	ldw	r8,1204(sp)
 5083f24:	45c0000f 	ldh	r23,0(r8)
 5083f28:	42000104 	addi	r8,r8,4
 5083f2c:	da012d15 	stw	r8,1204(sp)
 5083f30:	b82dd7fa 	srai	r22,r23,31
 5083f34:	b005883a 	mov	r2,r22
 5083f38:	003c1006 	br	5082f7c <___vfprintf_internal_r+0x520>
 5083f3c:	ac800007 	ldb	r18,0(r21)
 5083f40:	003b2406 	br	5082bd4 <___vfprintf_internal_r+0x178>
 5083f44:	4c800115 	stw	r18,4(r9)
 5083f48:	9211883a 	add	r8,r18,r8
 5083f4c:	18c00044 	addi	r3,r3,1
 5083f50:	da011d15 	stw	r8,1140(sp)
 5083f54:	d8c11c15 	stw	r3,1136(sp)
 5083f58:	008001c4 	movi	r2,7
 5083f5c:	10c15416 	blt	r2,r3,50844b0 <___vfprintf_internal_r+0x1a54>
 5083f60:	4a400204 	addi	r9,r9,8
 5083f64:	d8813717 	ldw	r2,1244(sp)
 5083f68:	9ca7883a 	add	r19,r19,r18
 5083f6c:	48800015 	stw	r2,0(r9)
 5083f70:	00800044 	movi	r2,1
 5083f74:	48800115 	stw	r2,4(r9)
 5083f78:	4091883a 	add	r8,r8,r2
 5083f7c:	1887883a 	add	r3,r3,r2
 5083f80:	da011d15 	stw	r8,1140(sp)
 5083f84:	d8c11c15 	stw	r3,1136(sp)
 5083f88:	008001c4 	movi	r2,7
 5083f8c:	10c14016 	blt	r2,r3,5084490 <___vfprintf_internal_r+0x1a34>
 5083f90:	4a400204 	addi	r9,r9,8
 5083f94:	d9013217 	ldw	r4,1224(sp)
 5083f98:	da011d17 	ldw	r8,1140(sp)
 5083f9c:	d8c11c17 	ldw	r3,1136(sp)
 5083fa0:	24a5c83a 	sub	r18,r4,r18
 5083fa4:	4cc00015 	stw	r19,0(r9)
 5083fa8:	003fa406 	br	5083e3c <___vfprintf_internal_r+0x13e0>
 5083fac:	04c14274 	movhi	r19,1289
 5083fb0:	9cfc3a04 	addi	r19,r19,-3864
 5083fb4:	003cf406 	br	5083388 <___vfprintf_internal_r+0x92c>
 5083fb8:	d9412917 	ldw	r5,1188(sp)
 5083fbc:	8809883a 	mov	r4,r17
 5083fc0:	d9811b04 	addi	r6,sp,1132
 5083fc4:	5082a280 	call	5082a28 <__sprint_r>
 5083fc8:	103c371e 	bne	r2,zero,50830a8 <___vfprintf_internal_r+0x64c>
 5083fcc:	da011d17 	ldw	r8,1140(sp)
 5083fd0:	da400404 	addi	r9,sp,16
 5083fd4:	003e1c06 	br	5083848 <___vfprintf_internal_r+0xdec>
 5083fd8:	00814274 	movhi	r2,1289
 5083fdc:	10bc4904 	addi	r2,r2,-3804
 5083fe0:	48800015 	stw	r2,0(r9)
 5083fe4:	00800044 	movi	r2,1
 5083fe8:	48800115 	stw	r2,4(r9)
 5083fec:	4091883a 	add	r8,r8,r2
 5083ff0:	1887883a 	add	r3,r3,r2
 5083ff4:	da011d15 	stw	r8,1140(sp)
 5083ff8:	d8c11c15 	stw	r3,1136(sp)
 5083ffc:	008001c4 	movi	r2,7
 5084000:	10c0c316 	blt	r2,r3,5084310 <___vfprintf_internal_r+0x18b4>
 5084004:	4a400204 	addi	r9,r9,8
 5084008:	9000041e 	bne	r18,zero,508401c <___vfprintf_internal_r+0x15c0>
 508400c:	d8c13217 	ldw	r3,1224(sp)
 5084010:	1800021e 	bne	r3,zero,508401c <___vfprintf_internal_r+0x15c0>
 5084014:	8080004c 	andi	r2,r16,1
 5084018:	103d7826 	beq	r2,zero,50835fc <___vfprintf_internal_r+0xba0>
 508401c:	d8c11c17 	ldw	r3,1136(sp)
 5084020:	d9013717 	ldw	r4,1244(sp)
 5084024:	00800044 	movi	r2,1
 5084028:	48800115 	stw	r2,4(r9)
 508402c:	49000015 	stw	r4,0(r9)
 5084030:	4091883a 	add	r8,r8,r2
 5084034:	1887883a 	add	r3,r3,r2
 5084038:	da011d15 	stw	r8,1140(sp)
 508403c:	d8c11c15 	stw	r3,1136(sp)
 5084040:	008001c4 	movi	r2,7
 5084044:	10c12e16 	blt	r2,r3,5084500 <___vfprintf_internal_r+0x1aa4>
 5084048:	4a400204 	addi	r9,r9,8
 508404c:	04a5c83a 	sub	r18,zero,r18
 5084050:	0480de0e 	bge	zero,r18,50843cc <___vfprintf_internal_r+0x1970>
 5084054:	05800404 	movi	r22,16
 5084058:	05014274 	movhi	r20,1289
 508405c:	a53c4d84 	addi	r20,r20,-3786
 5084060:	b480e20e 	bge	r22,r18,50843ec <___vfprintf_internal_r+0x1990>
 5084064:	05c001c4 	movi	r23,7
 5084068:	df012917 	ldw	fp,1188(sp)
 508406c:	00000306 	br	508407c <___vfprintf_internal_r+0x1620>
 5084070:	4a400204 	addi	r9,r9,8
 5084074:	94bffc04 	addi	r18,r18,-16
 5084078:	b480dc0e 	bge	r22,r18,50843ec <___vfprintf_internal_r+0x1990>
 508407c:	4d000015 	stw	r20,0(r9)
 5084080:	4d800115 	stw	r22,4(r9)
 5084084:	42000404 	addi	r8,r8,16
 5084088:	18c00044 	addi	r3,r3,1
 508408c:	da011d15 	stw	r8,1140(sp)
 5084090:	d8c11c15 	stw	r3,1136(sp)
 5084094:	b8fff60e 	bge	r23,r3,5084070 <___vfprintf_internal_r+0x1614>
 5084098:	8809883a 	mov	r4,r17
 508409c:	e00b883a 	mov	r5,fp
 50840a0:	d9811b04 	addi	r6,sp,1132
 50840a4:	5082a280 	call	5082a28 <__sprint_r>
 50840a8:	103bff1e 	bne	r2,zero,50830a8 <___vfprintf_internal_r+0x64c>
 50840ac:	da011d17 	ldw	r8,1140(sp)
 50840b0:	d8c11c17 	ldw	r3,1136(sp)
 50840b4:	da400404 	addi	r9,sp,16
 50840b8:	003fee06 	br	5084074 <___vfprintf_internal_r+0x1618>
 50840bc:	da413c15 	stw	r9,1264(sp)
 50840c0:	50896140 	call	5089614 <__isnand>
 50840c4:	da413c17 	ldw	r9,1264(sp)
 50840c8:	1000851e 	bne	r2,zero,50842e0 <___vfprintf_internal_r+0x1884>
 50840cc:	00bfffc4 	movi	r2,-1
 50840d0:	e0817626 	beq	fp,r2,50846ac <___vfprintf_internal_r+0x1c50>
 50840d4:	008019c4 	movi	r2,103
 50840d8:	90817126 	beq	r18,r2,50846a0 <___vfprintf_internal_r+0x1c44>
 50840dc:	008011c4 	movi	r2,71
 50840e0:	90816f26 	beq	r18,r2,50846a0 <___vfprintf_internal_r+0x1c44>
 50840e4:	82004014 	ori	r8,r16,256
 50840e8:	da012a15 	stw	r8,1192(sp)
 50840ec:	a0017116 	blt	r20,zero,50846b4 <___vfprintf_internal_r+0x1c58>
 50840f0:	d8012f05 	stb	zero,1212(sp)
 50840f4:	00801984 	movi	r2,102
 50840f8:	90811226 	beq	r18,r2,5084544 <___vfprintf_internal_r+0x1ae8>
 50840fc:	00801184 	movi	r2,70
 5084100:	90811026 	beq	r18,r2,5084544 <___vfprintf_internal_r+0x1ae8>
 5084104:	00801944 	movi	r2,101
 5084108:	90819b26 	beq	r18,r2,5084778 <___vfprintf_internal_r+0x1d1c>
 508410c:	00801144 	movi	r2,69
 5084110:	90819926 	beq	r18,r2,5084778 <___vfprintf_internal_r+0x1d1c>
 5084114:	e02f883a 	mov	r23,fp
 5084118:	d8812404 	addi	r2,sp,1168
 508411c:	d8800115 	stw	r2,4(sp)
 5084120:	d8812304 	addi	r2,sp,1164
 5084124:	d8800215 	stw	r2,8(sp)
 5084128:	d8812204 	addi	r2,sp,1160
 508412c:	ddc00015 	stw	r23,0(sp)
 5084130:	d8800315 	stw	r2,12(sp)
 5084134:	8809883a 	mov	r4,r17
 5084138:	b00b883a 	mov	r5,r22
 508413c:	a00d883a 	mov	r6,r20
 5084140:	01c00084 	movi	r7,2
 5084144:	da413c15 	stw	r9,1264(sp)
 5084148:	5084ce00 	call	5084ce0 <_dtoa_r>
 508414c:	1027883a 	mov	r19,r2
 5084150:	008019c4 	movi	r2,103
 5084154:	da413c17 	ldw	r9,1264(sp)
 5084158:	90818c1e 	bne	r18,r2,508478c <___vfprintf_internal_r+0x1d30>
 508415c:	8080004c 	andi	r2,r16,1
 5084160:	10017926 	beq	r2,zero,5084748 <___vfprintf_internal_r+0x1cec>
 5084164:	00801184 	movi	r2,70
 5084168:	9dc7883a 	add	r3,r19,r23
 508416c:	90810626 	beq	r18,r2,5084588 <___vfprintf_internal_r+0x1b2c>
 5084170:	b009883a 	mov	r4,r22
 5084174:	a00b883a 	mov	r5,r20
 5084178:	000d883a 	mov	r6,zero
 508417c:	000f883a 	mov	r7,zero
 5084180:	d8c13b15 	stw	r3,1260(sp)
 5084184:	da413c15 	stw	r9,1264(sp)
 5084188:	508b0fc0 	call	508b0fc <__eqdf2>
 508418c:	d8c13b17 	ldw	r3,1260(sp)
 5084190:	da413c17 	ldw	r9,1264(sp)
 5084194:	10000726 	beq	r2,zero,50841b4 <___vfprintf_internal_r+0x1758>
 5084198:	d8812217 	ldw	r2,1160(sp)
 508419c:	10c1962e 	bgeu	r2,r3,50847f8 <___vfprintf_internal_r+0x1d9c>
 50841a0:	01000c04 	movi	r4,48
 50841a4:	11000005 	stb	r4,0(r2)
 50841a8:	10800044 	addi	r2,r2,1
 50841ac:	d8812215 	stw	r2,1160(sp)
 50841b0:	10fffc1e 	bne	r2,r3,50841a4 <___vfprintf_internal_r+0x1748>
 50841b4:	1cc7c83a 	sub	r3,r3,r19
 50841b8:	d8c13215 	stw	r3,1224(sp)
 50841bc:	008019c4 	movi	r2,103
 50841c0:	90810626 	beq	r18,r2,50845dc <___vfprintf_internal_r+0x1b80>
 50841c4:	008011c4 	movi	r2,71
 50841c8:	90810426 	beq	r18,r2,50845dc <___vfprintf_internal_r+0x1b80>
 50841cc:	00801984 	movi	r2,102
 50841d0:	90819a1e 	bne	r18,r2,508483c <___vfprintf_internal_r+0x1de0>
 50841d4:	d8812417 	ldw	r2,1168(sp)
 50841d8:	d8812b15 	stw	r2,1196(sp)
 50841dc:	0081880e 	bge	zero,r2,5084800 <___vfprintf_internal_r+0x1da4>
 50841e0:	e000021e 	bne	fp,zero,50841ec <___vfprintf_internal_r+0x1790>
 50841e4:	8400004c 	andi	r16,r16,1
 50841e8:	80000426 	beq	r16,zero,50841fc <___vfprintf_internal_r+0x17a0>
 50841ec:	d8812b17 	ldw	r2,1196(sp)
 50841f0:	e2000044 	addi	r8,fp,1
 50841f4:	1205883a 	add	r2,r2,r8
 50841f8:	d8812b15 	stw	r2,1196(sp)
 50841fc:	d8812815 	stw	r2,1184(sp)
 5084200:	10011716 	blt	r2,zero,5084660 <___vfprintf_internal_r+0x1c04>
 5084204:	ddc12f07 	ldb	r23,1212(sp)
 5084208:	b800ca26 	beq	r23,zero,5084534 <___vfprintf_internal_r+0x1ad8>
 508420c:	00800b44 	movi	r2,45
 5084210:	d8812585 	stb	r2,1174(sp)
 5084214:	dc012a17 	ldw	r16,1192(sp)
 5084218:	d8013115 	stw	zero,1220(sp)
 508421c:	003afe06 	br	5082e18 <___vfprintf_internal_r+0x3bc>
 5084220:	d8812b17 	ldw	r2,1196(sp)
 5084224:	d8812815 	stw	r2,1184(sp)
 5084228:	10005e16 	blt	r2,zero,50843a4 <___vfprintf_internal_r+0x1948>
 508422c:	d8812583 	ldbu	r2,1174(sp)
 5084230:	ddc12d15 	stw	r23,1204(sp)
 5084234:	d8013115 	stw	zero,1220(sp)
 5084238:	003af306 	br	5082e08 <___vfprintf_internal_r+0x3ac>
 508423c:	d8812d17 	ldw	r2,1204(sp)
 5084240:	15c00017 	ldw	r23,0(r2)
 5084244:	10800104 	addi	r2,r2,4
 5084248:	d8812d15 	stw	r2,1204(sp)
 508424c:	b82dd7fa 	srai	r22,r23,31
 5084250:	b005883a 	mov	r2,r22
 5084254:	003b4906 	br	5082f7c <___vfprintf_internal_r+0x520>
 5084258:	d8c12d17 	ldw	r3,1204(sp)
 508425c:	002d883a 	mov	r22,zero
 5084260:	1dc00017 	ldw	r23,0(r3)
 5084264:	18c00104 	addi	r3,r3,4
 5084268:	d8c12d15 	stw	r3,1204(sp)
 508426c:	b805883a 	mov	r2,r23
 5084270:	00c00044 	movi	r3,1
 5084274:	d8012585 	stb	zero,1174(sp)
 5084278:	003acf06 	br	5082db8 <___vfprintf_internal_r+0x35c>
 508427c:	da012d17 	ldw	r8,1204(sp)
 5084280:	002d883a 	mov	r22,zero
 5084284:	45c00017 	ldw	r23,0(r8)
 5084288:	42000104 	addi	r8,r8,4
 508428c:	da012d15 	stw	r8,1204(sp)
 5084290:	003be506 	br	5083228 <___vfprintf_internal_r+0x7cc>
 5084294:	da012d17 	ldw	r8,1204(sp)
 5084298:	002d883a 	mov	r22,zero
 508429c:	0007883a 	mov	r3,zero
 50842a0:	45c00017 	ldw	r23,0(r8)
 50842a4:	42000104 	addi	r8,r8,4
 50842a8:	da012d15 	stw	r8,1204(sp)
 50842ac:	b805883a 	mov	r2,r23
 50842b0:	d8012585 	stb	zero,1174(sp)
 50842b4:	003ac006 	br	5082db8 <___vfprintf_internal_r+0x35c>
 50842b8:	d8c12d17 	ldw	r3,1204(sp)
 50842bc:	d9012c17 	ldw	r4,1200(sp)
 50842c0:	18800017 	ldw	r2,0(r3)
 50842c4:	18c00104 	addi	r3,r3,4
 50842c8:	d8c12d15 	stw	r3,1204(sp)
 50842cc:	11000015 	stw	r4,0(r2)
 50842d0:	003a1806 	br	5082b34 <___vfprintf_internal_r+0xd8>
 50842d4:	073fffc4 	movi	fp,-1
 50842d8:	202b883a 	mov	r21,r4
 50842dc:	003a3e06 	br	5082bd8 <___vfprintf_internal_r+0x17c>
 50842e0:	008011c4 	movi	r2,71
 50842e4:	14809016 	blt	r2,r18,5084528 <___vfprintf_internal_r+0x1acc>
 50842e8:	04c14274 	movhi	r19,1289
 50842ec:	9cfc3b04 	addi	r19,r19,-3860
 50842f0:	00c000c4 	movi	r3,3
 50842f4:	00bfdfc4 	movi	r2,-129
 50842f8:	80a0703a 	and	r16,r16,r2
 50842fc:	d8c12815 	stw	r3,1184(sp)
 5084300:	d8812583 	ldbu	r2,1174(sp)
 5084304:	d8c12b15 	stw	r3,1196(sp)
 5084308:	d8013115 	stw	zero,1220(sp)
 508430c:	003abe06 	br	5082e08 <___vfprintf_internal_r+0x3ac>
 5084310:	d9412917 	ldw	r5,1188(sp)
 5084314:	8809883a 	mov	r4,r17
 5084318:	d9811b04 	addi	r6,sp,1132
 508431c:	5082a280 	call	5082a28 <__sprint_r>
 5084320:	103b611e 	bne	r2,zero,50830a8 <___vfprintf_internal_r+0x64c>
 5084324:	dc812417 	ldw	r18,1168(sp)
 5084328:	da011d17 	ldw	r8,1140(sp)
 508432c:	da400404 	addi	r9,sp,16
 5084330:	003f3506 	br	5084008 <___vfprintf_internal_r+0x15ac>
 5084334:	ad400044 	addi	r21,r21,1
 5084338:	84000814 	ori	r16,r16,32
 508433c:	14800047 	ldb	r18,1(r2)
 5084340:	003a2406 	br	5082bd4 <___vfprintf_internal_r+0x178>
 5084344:	d9412917 	ldw	r5,1188(sp)
 5084348:	8809883a 	mov	r4,r17
 508434c:	d9811b04 	addi	r6,sp,1132
 5084350:	5082a280 	call	5082a28 <__sprint_r>
 5084354:	103b541e 	bne	r2,zero,50830a8 <___vfprintf_internal_r+0x64c>
 5084358:	da011d17 	ldw	r8,1140(sp)
 508435c:	da400404 	addi	r9,sp,16
 5084360:	003d4a06 	br	508388c <___vfprintf_internal_r+0xe30>
 5084364:	4d000015 	stw	r20,0(r9)
 5084368:	4c800115 	stw	r18,4(r9)
 508436c:	4491883a 	add	r8,r8,r18
 5084370:	18c00044 	addi	r3,r3,1
 5084374:	da011d15 	stw	r8,1140(sp)
 5084378:	d8c11c15 	stw	r3,1136(sp)
 508437c:	008001c4 	movi	r2,7
 5084380:	10fcdc16 	blt	r2,r3,50836f4 <___vfprintf_internal_r+0xc98>
 5084384:	4a400204 	addi	r9,r9,8
 5084388:	003ce106 	br	5083710 <___vfprintf_internal_r+0xcb4>
 508438c:	da413c15 	stw	r9,1264(sp)
 5084390:	508299c0 	call	508299c <strlen>
 5084394:	d8812b15 	stw	r2,1196(sp)
 5084398:	d8812815 	stw	r2,1184(sp)
 508439c:	da413c17 	ldw	r9,1264(sp)
 50843a0:	103fa20e 	bge	r2,zero,508422c <___vfprintf_internal_r+0x17d0>
 50843a4:	d8012815 	stw	zero,1184(sp)
 50843a8:	003fa006 	br	508422c <___vfprintf_internal_r+0x17d0>
 50843ac:	d9412917 	ldw	r5,1188(sp)
 50843b0:	8809883a 	mov	r4,r17
 50843b4:	d9811b04 	addi	r6,sp,1132
 50843b8:	5082a280 	call	5082a28 <__sprint_r>
 50843bc:	103b3a1e 	bne	r2,zero,50830a8 <___vfprintf_internal_r+0x64c>
 50843c0:	da011d17 	ldw	r8,1140(sp)
 50843c4:	d8c11c17 	ldw	r3,1136(sp)
 50843c8:	da400404 	addi	r9,sp,16
 50843cc:	d8813217 	ldw	r2,1224(sp)
 50843d0:	4cc00015 	stw	r19,0(r9)
 50843d4:	48800115 	stw	r2,4(r9)
 50843d8:	4091883a 	add	r8,r8,r2
 50843dc:	003c8106 	br	50835e4 <___vfprintf_internal_r+0xb88>
 50843e0:	00800b44 	movi	r2,45
 50843e4:	d8812585 	stb	r2,1174(sp)
 50843e8:	003be306 	br	5083378 <___vfprintf_internal_r+0x91c>
 50843ec:	4d000015 	stw	r20,0(r9)
 50843f0:	4c800115 	stw	r18,4(r9)
 50843f4:	4491883a 	add	r8,r8,r18
 50843f8:	18c00044 	addi	r3,r3,1
 50843fc:	da011d15 	stw	r8,1140(sp)
 5084400:	d8c11c15 	stw	r3,1136(sp)
 5084404:	008001c4 	movi	r2,7
 5084408:	10ffe816 	blt	r2,r3,50843ac <___vfprintf_internal_r+0x1950>
 508440c:	4a400204 	addi	r9,r9,8
 5084410:	003fee06 	br	50843cc <___vfprintf_internal_r+0x1970>
 5084414:	df012b15 	stw	fp,1196(sp)
 5084418:	00800184 	movi	r2,6
 508441c:	1700072e 	bgeu	r2,fp,508443c <___vfprintf_internal_r+0x19e0>
 5084420:	d8812b15 	stw	r2,1196(sp)
 5084424:	d8812815 	stw	r2,1184(sp)
 5084428:	ddc12d15 	stw	r23,1204(sp)
 508442c:	04c14274 	movhi	r19,1289
 5084430:	9cfc4704 	addi	r19,r19,-3812
 5084434:	d8013115 	stw	zero,1220(sp)
 5084438:	003a7a06 	br	5082e24 <___vfprintf_internal_r+0x3c8>
 508443c:	d8812b17 	ldw	r2,1196(sp)
 5084440:	d8812815 	stw	r2,1184(sp)
 5084444:	103ff80e 	bge	r2,zero,5084428 <___vfprintf_internal_r+0x19cc>
 5084448:	d8012815 	stw	zero,1184(sp)
 508444c:	003ff606 	br	5084428 <___vfprintf_internal_r+0x19cc>
 5084450:	d9012d17 	ldw	r4,1204(sp)
 5084454:	da012c17 	ldw	r8,1200(sp)
 5084458:	20800017 	ldw	r2,0(r4)
 508445c:	21000104 	addi	r4,r4,4
 5084460:	d9012d15 	stw	r4,1204(sp)
 5084464:	12000015 	stw	r8,0(r2)
 5084468:	0039b206 	br	5082b34 <___vfprintf_internal_r+0xd8>
 508446c:	d9412917 	ldw	r5,1188(sp)
 5084470:	8809883a 	mov	r4,r17
 5084474:	d9811b04 	addi	r6,sp,1132
 5084478:	5082a280 	call	5082a28 <__sprint_r>
 508447c:	103b0a1e 	bne	r2,zero,50830a8 <___vfprintf_internal_r+0x64c>
 5084480:	dc812417 	ldw	r18,1168(sp)
 5084484:	da011d17 	ldw	r8,1140(sp)
 5084488:	da400404 	addi	r9,sp,16
 508448c:	003def06 	br	5083c4c <___vfprintf_internal_r+0x11f0>
 5084490:	d9412917 	ldw	r5,1188(sp)
 5084494:	8809883a 	mov	r4,r17
 5084498:	d9811b04 	addi	r6,sp,1132
 508449c:	5082a280 	call	5082a28 <__sprint_r>
 50844a0:	103b011e 	bne	r2,zero,50830a8 <___vfprintf_internal_r+0x64c>
 50844a4:	dc812417 	ldw	r18,1168(sp)
 50844a8:	da400404 	addi	r9,sp,16
 50844ac:	003eb906 	br	5083f94 <___vfprintf_internal_r+0x1538>
 50844b0:	d9412917 	ldw	r5,1188(sp)
 50844b4:	8809883a 	mov	r4,r17
 50844b8:	d9811b04 	addi	r6,sp,1132
 50844bc:	5082a280 	call	5082a28 <__sprint_r>
 50844c0:	103af91e 	bne	r2,zero,50830a8 <___vfprintf_internal_r+0x64c>
 50844c4:	dc812417 	ldw	r18,1168(sp)
 50844c8:	da011d17 	ldw	r8,1140(sp)
 50844cc:	d8c11c17 	ldw	r3,1136(sp)
 50844d0:	da400404 	addi	r9,sp,16
 50844d4:	003ea306 	br	5083f64 <___vfprintf_internal_r+0x1508>
 50844d8:	00800244 	movi	r2,9
 50844dc:	15fda636 	bltu	r2,r23,5083b78 <___vfprintf_internal_r+0x111c>
 50844e0:	dd010e04 	addi	r20,sp,1080
 50844e4:	003dc206 	br	5083bf0 <___vfprintf_internal_r+0x1194>
 50844e8:	df012815 	stw	fp,1184(sp)
 50844ec:	d8812583 	ldbu	r2,1174(sp)
 50844f0:	df012b15 	stw	fp,1196(sp)
 50844f4:	ddc12d15 	stw	r23,1204(sp)
 50844f8:	d8013115 	stw	zero,1220(sp)
 50844fc:	003a4206 	br	5082e08 <___vfprintf_internal_r+0x3ac>
 5084500:	d9412917 	ldw	r5,1188(sp)
 5084504:	8809883a 	mov	r4,r17
 5084508:	d9811b04 	addi	r6,sp,1132
 508450c:	5082a280 	call	5082a28 <__sprint_r>
 5084510:	103ae51e 	bne	r2,zero,50830a8 <___vfprintf_internal_r+0x64c>
 5084514:	dc812417 	ldw	r18,1168(sp)
 5084518:	da011d17 	ldw	r8,1140(sp)
 508451c:	d8c11c17 	ldw	r3,1136(sp)
 5084520:	da400404 	addi	r9,sp,16
 5084524:	003ec906 	br	508404c <___vfprintf_internal_r+0x15f0>
 5084528:	04c14274 	movhi	r19,1289
 508452c:	9cfc3c04 	addi	r19,r19,-3856
 5084530:	003f6f06 	br	50842f0 <___vfprintf_internal_r+0x1894>
 5084534:	d8812583 	ldbu	r2,1174(sp)
 5084538:	dc012a17 	ldw	r16,1192(sp)
 508453c:	d8013115 	stw	zero,1220(sp)
 5084540:	003a3106 	br	5082e08 <___vfprintf_internal_r+0x3ac>
 5084544:	d8812404 	addi	r2,sp,1168
 5084548:	d8800115 	stw	r2,4(sp)
 508454c:	d8812304 	addi	r2,sp,1164
 5084550:	d8800215 	stw	r2,8(sp)
 5084554:	d8812204 	addi	r2,sp,1160
 5084558:	df000015 	stw	fp,0(sp)
 508455c:	d8800315 	stw	r2,12(sp)
 5084560:	8809883a 	mov	r4,r17
 5084564:	b00b883a 	mov	r5,r22
 5084568:	a00d883a 	mov	r6,r20
 508456c:	01c000c4 	movi	r7,3
 5084570:	da413c15 	stw	r9,1264(sp)
 5084574:	5084ce00 	call	5084ce0 <_dtoa_r>
 5084578:	da413c17 	ldw	r9,1264(sp)
 508457c:	1027883a 	mov	r19,r2
 5084580:	1707883a 	add	r3,r2,fp
 5084584:	e02f883a 	mov	r23,fp
 5084588:	99000007 	ldb	r4,0(r19)
 508458c:	00800c04 	movi	r2,48
 5084590:	20800326 	beq	r4,r2,50845a0 <___vfprintf_internal_r+0x1b44>
 5084594:	da812417 	ldw	r10,1168(sp)
 5084598:	1a87883a 	add	r3,r3,r10
 508459c:	003ef406 	br	5084170 <___vfprintf_internal_r+0x1714>
 50845a0:	b009883a 	mov	r4,r22
 50845a4:	a00b883a 	mov	r5,r20
 50845a8:	000d883a 	mov	r6,zero
 50845ac:	000f883a 	mov	r7,zero
 50845b0:	d8c13b15 	stw	r3,1260(sp)
 50845b4:	da413c15 	stw	r9,1264(sp)
 50845b8:	508b1580 	call	508b158 <__nedf2>
 50845bc:	d8c13b17 	ldw	r3,1260(sp)
 50845c0:	da413c17 	ldw	r9,1264(sp)
 50845c4:	103ff326 	beq	r2,zero,5084594 <___vfprintf_internal_r+0x1b38>
 50845c8:	00800044 	movi	r2,1
 50845cc:	15d5c83a 	sub	r10,r2,r23
 50845d0:	da812415 	stw	r10,1168(sp)
 50845d4:	1a87883a 	add	r3,r3,r10
 50845d8:	003ee506 	br	5084170 <___vfprintf_internal_r+0x1714>
 50845dc:	d8812417 	ldw	r2,1168(sp)
 50845e0:	d8812b15 	stw	r2,1196(sp)
 50845e4:	1029883a 	mov	r20,r2
 50845e8:	00bfff44 	movi	r2,-3
 50845ec:	a0800116 	blt	r20,r2,50845f4 <___vfprintf_internal_r+0x1b98>
 50845f0:	e5001d0e 	bge	fp,r20,5084668 <___vfprintf_internal_r+0x1c0c>
 50845f4:	94bfff84 	addi	r18,r18,-2
 50845f8:	a53fffc4 	addi	r20,r20,-1
 50845fc:	dd012415 	stw	r20,1168(sp)
 5084600:	dc811fc5 	stb	r18,1151(sp)
 5084604:	a0007816 	blt	r20,zero,50847e8 <___vfprintf_internal_r+0x1d8c>
 5084608:	00800ac4 	movi	r2,43
 508460c:	d8812005 	stb	r2,1152(sp)
 5084610:	00800244 	movi	r2,9
 5084614:	15002b16 	blt	r2,r20,50846c4 <___vfprintf_internal_r+0x1c68>
 5084618:	00800c04 	movi	r2,48
 508461c:	a5000c04 	addi	r20,r20,48
 5084620:	d8812045 	stb	r2,1153(sp)
 5084624:	dd012085 	stb	r20,1154(sp)
 5084628:	d8c120c4 	addi	r3,sp,1155
 508462c:	d8811fc4 	addi	r2,sp,1151
 5084630:	da013217 	ldw	r8,1224(sp)
 5084634:	1885c83a 	sub	r2,r3,r2
 5084638:	d8813515 	stw	r2,1236(sp)
 508463c:	4085883a 	add	r2,r8,r2
 5084640:	d8812b15 	stw	r2,1196(sp)
 5084644:	00800044 	movi	r2,1
 5084648:	1200610e 	bge	r2,r8,50847d0 <___vfprintf_internal_r+0x1d74>
 508464c:	d8812b17 	ldw	r2,1196(sp)
 5084650:	10800044 	addi	r2,r2,1
 5084654:	d8812b15 	stw	r2,1196(sp)
 5084658:	d8812815 	stw	r2,1184(sp)
 508465c:	103ee90e 	bge	r2,zero,5084204 <___vfprintf_internal_r+0x17a8>
 5084660:	d8012815 	stw	zero,1184(sp)
 5084664:	003ee706 	br	5084204 <___vfprintf_internal_r+0x17a8>
 5084668:	d8812b17 	ldw	r2,1196(sp)
 508466c:	da013217 	ldw	r8,1224(sp)
 5084670:	12003716 	blt	r2,r8,5084750 <___vfprintf_internal_r+0x1cf4>
 5084674:	8400004c 	andi	r16,r16,1
 5084678:	80000326 	beq	r16,zero,5084688 <___vfprintf_internal_r+0x1c2c>
 508467c:	d8812b17 	ldw	r2,1196(sp)
 5084680:	10800044 	addi	r2,r2,1
 5084684:	d8812b15 	stw	r2,1196(sp)
 5084688:	d8812815 	stw	r2,1184(sp)
 508468c:	10003716 	blt	r2,zero,508476c <___vfprintf_internal_r+0x1d10>
 5084690:	048019c4 	movi	r18,103
 5084694:	003edb06 	br	5084204 <___vfprintf_internal_r+0x17a8>
 5084698:	d8012815 	stw	zero,1184(sp)
 508469c:	003b6906 	br	5083444 <___vfprintf_internal_r+0x9e8>
 50846a0:	e03e901e 	bne	fp,zero,50840e4 <___vfprintf_internal_r+0x1688>
 50846a4:	07000044 	movi	fp,1
 50846a8:	003e8e06 	br	50840e4 <___vfprintf_internal_r+0x1688>
 50846ac:	07000184 	movi	fp,6
 50846b0:	003e8c06 	br	50840e4 <___vfprintf_internal_r+0x1688>
 50846b4:	00c00b44 	movi	r3,45
 50846b8:	a520003c 	xorhi	r20,r20,32768
 50846bc:	d8c12f05 	stb	r3,1212(sp)
 50846c0:	003e8c06 	br	50840f4 <___vfprintf_internal_r+0x1698>
 50846c4:	d8c11f84 	addi	r3,sp,1150
 50846c8:	102f883a 	mov	r23,r2
 50846cc:	4839883a 	mov	fp,r9
 50846d0:	a009883a 	mov	r4,r20
 50846d4:	01400284 	movi	r5,10
 50846d8:	182d883a 	mov	r22,r3
 50846dc:	508276c0 	call	508276c <__modsi3>
 50846e0:	10800c04 	addi	r2,r2,48
 50846e4:	a009883a 	mov	r4,r20
 50846e8:	b0800005 	stb	r2,0(r22)
 50846ec:	01400284 	movi	r5,10
 50846f0:	508271c0 	call	508271c <__divsi3>
 50846f4:	1029883a 	mov	r20,r2
 50846f8:	b0ffffc4 	addi	r3,r22,-1
 50846fc:	b8bff416 	blt	r23,r2,50846d0 <___vfprintf_internal_r+0x1c74>
 5084700:	11400c04 	addi	r5,r2,48
 5084704:	b17fffc5 	stb	r5,-1(r22)
 5084708:	d8811fc4 	addi	r2,sp,1151
 508470c:	e013883a 	mov	r9,fp
 5084710:	1880482e 	bgeu	r3,r2,5084834 <___vfprintf_internal_r+0x1dd8>
 5084714:	b007883a 	mov	r3,r22
 5084718:	d9012044 	addi	r4,sp,1153
 508471c:	00000206 	br	5084728 <___vfprintf_internal_r+0x1ccc>
 5084720:	19400003 	ldbu	r5,0(r3)
 5084724:	18c00044 	addi	r3,r3,1
 5084728:	21400005 	stb	r5,0(r4)
 508472c:	21000044 	addi	r4,r4,1
 5084730:	10fffb1e 	bne	r2,r3,5084720 <___vfprintf_internal_r+0x1cc4>
 5084734:	d8c12004 	addi	r3,sp,1152
 5084738:	1d87c83a 	sub	r3,r3,r22
 508473c:	d9012044 	addi	r4,sp,1153
 5084740:	20c7883a 	add	r3,r4,r3
 5084744:	003fba06 	br	5084630 <___vfprintf_internal_r+0x1bd4>
 5084748:	d8c12217 	ldw	r3,1160(sp)
 508474c:	003e9906 	br	50841b4 <___vfprintf_internal_r+0x1758>
 5084750:	05000b0e 	bge	zero,r20,5084780 <___vfprintf_internal_r+0x1d24>
 5084754:	05000044 	movi	r20,1
 5084758:	da013217 	ldw	r8,1224(sp)
 508475c:	a229883a 	add	r20,r20,r8
 5084760:	dd012b15 	stw	r20,1196(sp)
 5084764:	dd012815 	stw	r20,1184(sp)
